TN:
SF:/home/bmcotonom1/DevOps/src/cpp_pubsub/src/publisher_member_function.cpp
FN:29,_ZN16MinimalPublisherC2Ev
FN:38,_ZN16MinimalPublisher14timer_callbackEv
FN:50,main
FNDA:15,_ZN16MinimalPublisher14timer_callbackEv
FNDA:1,_ZN16MinimalPublisherC2Ev
FNDA:1,main
FNF:3
FNH:3
DA:29,1
DA:30,1
DA:32,1
DA:33,3
DA:34,3
DA:35,1
DA:38,15
DA:40,30
DA:41,15
DA:42,15
DA:43,15
DA:44,15
DA:50,1
DA:52,1
DA:53,1
DA:54,1
DA:55,1
LF:17
LH:17
end_of_record
TN:
SF:/home/bmcotonom1/DevOps/src/cpp_pubsub/src/subscriber_member_function.cpp
FN:24,_ZN17MinimalSubscriberC2Ev
FN:32,_ZNK17MinimalSubscriber14topic_callbackESt10shared_ptrIN8std_msgs3msg7String_ISaIvEEEE
FN:39,main
FNDA:1,main
FNDA:1,_ZN17MinimalSubscriberC2Ev
FNDA:9,_ZNK17MinimalSubscriber14topic_callbackESt10shared_ptrIN8std_msgs3msg7String_ISaIvEEEE
FNF:3
FNH:3
DA:24,1
DA:25,1
DA:27,4
DA:28,3
DA:29,1
DA:32,9
DA:34,9
DA:35,9
DA:39,1
DA:41,1
DA:42,1
DA:43,1
DA:44,1
LF:13
LH:13
end_of_record
TN:
SF:/opt/ros/foxy/include/libstatistics_collector/collector/collector.hpp
FN:41,_ZN23libstatistics_collector9collector9CollectorC2Ev
FN:44,_ZN23libstatistics_collector9collector9CollectorD0Ev
FN:44,_ZN23libstatistics_collector9collector9CollectorD2Ev
FNDA:0,_ZN23libstatistics_collector9collector9CollectorD2Ev
FNDA:0,_ZN23libstatistics_collector9collector9CollectorC2Ev
FNDA:0,_ZN23libstatistics_collector9collector9CollectorD0Ev
FNF:3
FNH:0
DA:41,0
DA:44,0
LF:2
LH:0
end_of_record
TN:
SF:/opt/ros/foxy/include/libstatistics_collector/collector/metric_details_interface.hpp
FN:34,_ZN23libstatistics_collector9collector22MetricDetailsInterfaceD0Ev
FN:34,_ZN23libstatistics_collector9collector22MetricDetailsInterfaceD2Ev
FNDA:0,_ZN23libstatistics_collector9collector22MetricDetailsInterfaceD2Ev
FNDA:0,_ZN23libstatistics_collector9collector22MetricDetailsInterfaceD0Ev
FNF:2
FNH:0
DA:34,0
LF:1
LH:0
end_of_record
TN:
SF:/opt/ros/foxy/include/libstatistics_collector/moving_average_statistics/moving_average.hpp
FN:53,_ZN23libstatistics_collector25moving_average_statistics23MovingAverageStatisticsC2Ev
FNDA:0,_ZN23libstatistics_collector25moving_average_statistics23MovingAverageStatisticsC2Ev
FNF:1
FNH:0
DA:53,0
LF:1
LH:0
end_of_record
TN:
SF:/opt/ros/foxy/include/libstatistics_collector/topic_statistics_collector/received_message_age.hpp
FN:59,_ZN23libstatistics_collector26topic_statistics_collector9TimeStampIN8std_msgs3msg7String_ISaIvEEEvE5valueERKS6_
FN:90,_ZN23libstatistics_collector26topic_statistics_collector27ReceivedMessageAgeCollectorIN8std_msgs3msg7String_ISaIvEEEEC2Ev
FN:92,_ZN23libstatistics_collector26topic_statistics_collector27ReceivedMessageAgeCollectorIN8std_msgs3msg7String_ISaIvEEEED0Ev
FN:92,_ZN23libstatistics_collector26topic_statistics_collector27ReceivedMessageAgeCollectorIN8std_msgs3msg7String_ISaIvEEEED2Ev
FN:100,_ZN23libstatistics_collector26topic_statistics_collector27ReceivedMessageAgeCollectorIN8std_msgs3msg7String_ISaIvEEEE17OnMessageReceivedERKS6_l
FN:122,_ZNK23libstatistics_collector26topic_statistics_collector27ReceivedMessageAgeCollectorIN8std_msgs3msg7String_ISaIvEEEE13GetMetricNameB5cxx11Ev
FN:132,_ZNK23libstatistics_collector26topic_statistics_collector27ReceivedMessageAgeCollectorIN8std_msgs3msg7String_ISaIvEEEE13GetMetricUnitB5cxx11Ev
FN:138,_ZN23libstatistics_collector26topic_statistics_collector27ReceivedMessageAgeCollectorIN8std_msgs3msg7String_ISaIvEEEE10SetupStartEv
FN:143,_ZN23libstatistics_collector26topic_statistics_collector27ReceivedMessageAgeCollectorIN8std_msgs3msg7String_ISaIvEEEE9SetupStopEv
FNDA:0,_ZN23libstatistics_collector26topic_statistics_collector27ReceivedMessageAgeCollectorIN8std_msgs3msg7String_ISaIvEEEE17OnMessageReceivedERKS6_l
FNDA:0,_ZN23libstatistics_collector26topic_statistics_collector27ReceivedMessageAgeCollectorIN8std_msgs3msg7String_ISaIvEEEED0Ev
FNDA:0,_ZN23libstatistics_collector26topic_statistics_collector9TimeStampIN8std_msgs3msg7String_ISaIvEEEvE5valueERKS6_
FNDA:0,_ZN23libstatistics_collector26topic_statistics_collector27ReceivedMessageAgeCollectorIN8std_msgs3msg7String_ISaIvEEEEC2Ev
FNDA:0,_ZN23libstatistics_collector26topic_statistics_collector27ReceivedMessageAgeCollectorIN8std_msgs3msg7String_ISaIvEEEE10SetupStartEv
FNDA:0,_ZN23libstatistics_collector26topic_statistics_collector27ReceivedMessageAgeCollectorIN8std_msgs3msg7String_ISaIvEEEED2Ev
FNDA:0,_ZN23libstatistics_collector26topic_statistics_collector27ReceivedMessageAgeCollectorIN8std_msgs3msg7String_ISaIvEEEE9SetupStopEv
FNDA:0,_ZNK23libstatistics_collector26topic_statistics_collector27ReceivedMessageAgeCollectorIN8std_msgs3msg7String_ISaIvEEEE13GetMetricUnitB5cxx11Ev
FNDA:0,_ZNK23libstatistics_collector26topic_statistics_collector27ReceivedMessageAgeCollectorIN8std_msgs3msg7String_ISaIvEEEE13GetMetricNameB5cxx11Ev
FNF:9
FNH:0
DA:59,0
DA:61,0
DA:90,0
DA:92,0
DA:100,0
DA:104,0
DA:106,0
DA:108,0
DA:109,0
DA:110,0
DA:112,0
DA:115,0
DA:122,0
DA:124,0
DA:132,0
DA:134,0
DA:138,0
DA:140,0
DA:143,0
DA:145,0
LF:20
LH:0
end_of_record
TN:
SF:/opt/ros/foxy/include/libstatistics_collector/topic_statistics_collector/received_message_period.hpp
FN:48,_ZN23libstatistics_collector26topic_statistics_collector30ReceivedMessagePeriodCollectorIN8std_msgs3msg7String_ISaIvEEEEC2Ev
FN:53,_ZN23libstatistics_collector26topic_statistics_collector30ReceivedMessagePeriodCollectorIN8std_msgs3msg7String_ISaIvEEEED2Ev
FN:53,_ZN23libstatistics_collector26topic_statistics_collector30ReceivedMessagePeriodCollectorIN8std_msgs3msg7String_ISaIvEEEED0Ev
FN:62,_ZN23libstatistics_collector26topic_statistics_collector30ReceivedMessagePeriodCollectorIN8std_msgs3msg7String_ISaIvEEEE17OnMessageReceivedERKS6_l
FN:84,_ZNK23libstatistics_collector26topic_statistics_collector30ReceivedMessagePeriodCollectorIN8std_msgs3msg7String_ISaIvEEEE13GetMetricNameB5cxx11Ev
FN:94,_ZNK23libstatistics_collector26topic_statistics_collector30ReceivedMessagePeriodCollectorIN8std_msgs3msg7String_ISaIvEEEE13GetMetricUnitB5cxx11Ev
FN:104,_ZN23libstatistics_collector26topic_statistics_collector30ReceivedMessagePeriodCollectorIN8std_msgs3msg7String_ISaIvEEEE10SetupStartEv
FN:110,_ZN23libstatistics_collector26topic_statistics_collector30ReceivedMessagePeriodCollectorIN8std_msgs3msg7String_ISaIvEEEE9SetupStopEv
FN:119,_ZN23libstatistics_collector26topic_statistics_collector30ReceivedMessagePeriodCollectorIN8std_msgs3msg7String_ISaIvEEEE28ResetTimeLastMessageReceivedEv
FNDA:0,_ZNK23libstatistics_collector26topic_statistics_collector30ReceivedMessagePeriodCollectorIN8std_msgs3msg7String_ISaIvEEEE13GetMetricNameB5cxx11Ev
FNDA:0,_ZN23libstatistics_collector26topic_statistics_collector30ReceivedMessagePeriodCollectorIN8std_msgs3msg7String_ISaIvEEEE28ResetTimeLastMessageReceivedEv
FNDA:0,_ZN23libstatistics_collector26topic_statistics_collector30ReceivedMessagePeriodCollectorIN8std_msgs3msg7String_ISaIvEEEED0Ev
FNDA:0,_ZN23libstatistics_collector26topic_statistics_collector30ReceivedMessagePeriodCollectorIN8std_msgs3msg7String_ISaIvEEEE17OnMessageReceivedERKS6_l
FNDA:0,_ZN23libstatistics_collector26topic_statistics_collector30ReceivedMessagePeriodCollectorIN8std_msgs3msg7String_ISaIvEEEE9SetupStopEv
FNDA:0,_ZN23libstatistics_collector26topic_statistics_collector30ReceivedMessagePeriodCollectorIN8std_msgs3msg7String_ISaIvEEEEC2Ev
FNDA:0,_ZNK23libstatistics_collector26topic_statistics_collector30ReceivedMessagePeriodCollectorIN8std_msgs3msg7String_ISaIvEEEE13GetMetricUnitB5cxx11Ev
FNDA:0,_ZN23libstatistics_collector26topic_statistics_collector30ReceivedMessagePeriodCollectorIN8std_msgs3msg7String_ISaIvEEEED2Ev
FNDA:0,_ZN23libstatistics_collector26topic_statistics_collector30ReceivedMessagePeriodCollectorIN8std_msgs3msg7String_ISaIvEEEE10SetupStartEv
FNF:9
FNH:0
DA:48,0
DA:49,0
DA:50,0
DA:51,0
DA:53,0
DA:62,0
DA:65,0
DA:69,0
DA:70,0
DA:72,0
DA:73,0
DA:74,0
DA:75,0
DA:77,0
DA:84,0
DA:86,0
DA:94,0
DA:96,0
DA:104,0
DA:106,0
DA:107,0
DA:110,0
DA:112,0
DA:119,0
DA:121,0
DA:122,0
LF:26
LH:0
end_of_record
TN:
SF:/opt/ros/foxy/include/libstatistics_collector/topic_statistics_collector/topic_statistics_collector.hpp
FN:40,_ZN23libstatistics_collector26topic_statistics_collector24TopicStatisticsCollectorIN8std_msgs3msg7String_ISaIvEEEEC2Ev
FN:42,_ZN23libstatistics_collector26topic_statistics_collector24TopicStatisticsCollectorIN8std_msgs3msg7String_ISaIvEEEED0Ev
FN:42,_ZN23libstatistics_collector26topic_statistics_collector24TopicStatisticsCollectorIN8std_msgs3msg7String_ISaIvEEEED2Ev
FNDA:0,_ZN23libstatistics_collector26topic_statistics_collector24TopicStatisticsCollectorIN8std_msgs3msg7String_ISaIvEEEED2Ev
FNDA:0,_ZN23libstatistics_collector26topic_statistics_collector24TopicStatisticsCollectorIN8std_msgs3msg7String_ISaIvEEEED0Ev
FNDA:0,_ZN23libstatistics_collector26topic_statistics_collector24TopicStatisticsCollectorIN8std_msgs3msg7String_ISaIvEEEEC2Ev
FNF:3
FNH:0
DA:40,0
DA:42,0
LF:2
LH:0
end_of_record
TN:
SF:/opt/ros/foxy/include/rclcpp/allocator/allocator_common.hpp
FN:33,_ZN6rclcpp9allocator16retyped_allocateISaIcEEEPvmS3_
FN:43,_ZN6rclcpp9allocator18retyped_deallocateIcSaIcEEEvPvS3_
FN:54,_ZN6rclcpp9allocator18retyped_reallocateIcSaIcEEEPvS3_mS3_
FN:71,_ZN6rclcpp9allocator17get_rcl_allocatorIcSaIcELPv0EEE19rcutils_allocator_tRT0_
FNDA:0,_ZN6rclcpp9allocator18retyped_reallocateIcSaIcEEEPvS3_mS3_
FNDA:30,_ZN6rclcpp9allocator18retyped_deallocateIcSaIcEEEvPvS3_
FNDA:30,_ZN6rclcpp9allocator16retyped_allocateISaIcEEEPvmS3_
FNDA:3,_ZN6rclcpp9allocator17get_rcl_allocatorIcSaIcELPv0EEE19rcutils_allocator_tRT0_
FNF:4
FNH:3
DA:33,30
DA:35,30
DA:36,30
DA:37,0
DA:39,30
DA:43,30
DA:45,30
DA:46,30
DA:47,0
DA:49,30
DA:50,30
DA:51,30
DA:54,0
DA:56,0
DA:57,0
DA:58,0
DA:60,0
DA:61,0
DA:62,0
DA:71,3
DA:73,3
DA:75,3
DA:76,3
DA:77,3
DA:78,3
DA:82,3
LF:26
LH:17
end_of_record
TN:
SF:/opt/ros/foxy/include/rclcpp/allocator/allocator_deleter.hpp
FN:80,_ZN6rclcpp9allocator25set_allocator_for_deleterIN15statistics_msgs3msg15MetricsMessage_ISaIvEEES6_EEvPSt14default_deleteIT_EPSaIT0_E
FN:80,_ZN6rclcpp9allocator25set_allocator_for_deleterIN8std_msgs3msg7String_ISaIvEEES6_EEvPSt14default_deleteIT_EPSaIT0_E
FNDA:0,_ZN6rclcpp9allocator25set_allocator_for_deleterIN15statistics_msgs3msg15MetricsMessage_ISaIvEEES6_EEvPSt14default_deleteIT_EPSaIT0_E
FNDA:2,_ZN6rclcpp9allocator25set_allocator_for_deleterIN8std_msgs3msg7String_ISaIvEEES6_EEvPSt14default_deleteIT_EPSaIT0_E
FNF:2
FNH:1
DA:80,2
DA:84,2
LF:2
LH:2
end_of_record
TN:
SF:/opt/ros/foxy/include/rclcpp/any_subscription_callback.hpp
FN:63,_ZN6rclcpp23AnySubscriptionCallbackIN8std_msgs3msg7String_ISaIvEEES4_EC2ESt10shared_ptrIS4_E
FN:72,_ZN6rclcpp23AnySubscriptionCallbackIN8std_msgs3msg7String_ISaIvEEES4_EC2ERKS6_
FN:83,_ZN6rclcpp23AnySubscriptionCallbackIN8std_msgs3msg7String_ISaIvEEES4_E3setISt5_BindIFM17MinimalSubscriberKFvSt10shared_ptrIS5_EEPS9_St12_PlaceholderILi1EEEELPv0EEEvT_
FN:158,_ZN6rclcpp23AnySubscriptionCallbackIN8std_msgs3msg7String_ISaIvEEES4_E8dispatchESt10shared_ptrIS5_ERKNS_11MessageInfoE
FN:184,_ZN6rclcpp23AnySubscriptionCallbackIN8std_msgs3msg7String_ISaIvEEES4_E22dispatch_intra_processESt10shared_ptrIKS5_ERKNS_11MessageInfoE
FN:207,_ZN6rclcpp23AnySubscriptionCallbackIN8std_msgs3msg7String_ISaIvEEES4_E22dispatch_intra_processESt10unique_ptrIS5_St14default_deleteIS5_EERKNS_11MessageInfoE
FN:231,_ZNK6rclcpp23AnySubscriptionCallbackIN8std_msgs3msg7String_ISaIvEEES4_E22use_take_shared_methodEv
FN:236,_ZN6rclcpp23AnySubscriptionCallbackIN8std_msgs3msg7String_ISaIvEEES4_E29register_callback_for_tracingEv
FNDA:0,_ZNK6rclcpp23AnySubscriptionCallbackIN8std_msgs3msg7String_ISaIvEEES4_E22use_take_shared_methodEv
FNDA:4,_ZN6rclcpp23AnySubscriptionCallbackIN8std_msgs3msg7String_ISaIvEEES4_EC2ERKS6_
FNDA:1,_ZN6rclcpp23AnySubscriptionCallbackIN8std_msgs3msg7String_ISaIvEEES4_EC2ESt10shared_ptrIS4_E
FNDA:0,_ZN6rclcpp23AnySubscriptionCallbackIN8std_msgs3msg7String_ISaIvEEES4_E22dispatch_intra_processESt10shared_ptrIKS5_ERKNS_11MessageInfoE
FNDA:9,_ZN6rclcpp23AnySubscriptionCallbackIN8std_msgs3msg7String_ISaIvEEES4_E8dispatchESt10shared_ptrIS5_ERKNS_11MessageInfoE
FNDA:1,_ZN6rclcpp23AnySubscriptionCallbackIN8std_msgs3msg7String_ISaIvEEES4_E3setISt5_BindIFM17MinimalSubscriberKFvSt10shared_ptrIS5_EEPS9_St12_PlaceholderILi1EEEELPv0EEEvT_
FNDA:0,_ZN6rclcpp23AnySubscriptionCallbackIN8std_msgs3msg7String_ISaIvEEES4_E22dispatch_intra_processESt10unique_ptrIS5_St14default_deleteIS5_EERKNS_11MessageInfoE
FNDA:1,_ZN6rclcpp23AnySubscriptionCallbackIN8std_msgs3msg7String_ISaIvEEES4_E29register_callback_for_tracingEv
FNF:8
FNH:5
DA:63,1
DA:66,1
DA:68,1
DA:69,1
DA:70,1
DA:72,4
DA:83,1
DA:85,1
DA:86,1
DA:158,9
DA:161,9
DA:162,9
DA:163,9
DA:164,0
DA:165,0
DA:166,0
DA:167,0
DA:168,0
DA:169,0
DA:170,0
DA:171,0
DA:172,0
DA:173,0
DA:174,0
DA:175,0
DA:176,0
DA:177,0
DA:179,0
DA:181,9
DA:182,9
DA:184,0
DA:187,0
DA:188,0
DA:189,0
DA:190,0
DA:191,0
DA:193,0
DA:194,0
DA:195,0
DA:199,0
DA:201,0
DA:204,0
DA:205,0
DA:207,0
DA:210,0
DA:211,0
DA:212,0
DA:213,0
DA:214,0
DA:215,0
DA:216,0
DA:217,0
DA:218,0
DA:219,0
DA:220,0
DA:221,0
DA:224,0
DA:226,0
DA:228,0
DA:229,0
DA:231,0
DA:233,0
DA:236,1
DA:239,1
DA:240,1
DA:244,0
DA:245,0
DA:249,0
DA:250,0
DA:254,0
DA:255,0
DA:259,0
DA:260,0
DA:264,0
DA:265,0
DA:271,1
LF:76
LH:19
end_of_record
TN:
SF:/opt/ros/foxy/include/rclcpp/context.hpp
FN:310,_ZN6rclcpp7Context15get_sub_contextINS_12experimental19IntraProcessManagerEJEEESt10shared_ptrIT_EDpOT0_
FN:321,_ZZN6rclcpp7Context15get_sub_contextINS_12experimental19IntraProcessManagerEJEEESt10shared_ptrIT_EDpOT0_ENKUlPS3_E_clESA_
FNDA:0,_ZZN6rclcpp7Context15get_sub_contextINS_12experimental19IntraProcessManagerEJEEESt10shared_ptrIT_EDpOT0_ENKUlPS3_E_clESA_
FNDA:0,_ZN6rclcpp7Context15get_sub_contextINS_12experimental19IntraProcessManagerEJEEESt10shared_ptrIT_EDpOT0_
FNF:2
FNH:0
DA:310,0
DA:312,0
DA:314,0
DA:315,0
DA:316,0
DA:317,0
DA:319,0
DA:320,0
DA:321,0
DA:322,0
DA:324,0
DA:327,0
DA:329,0
LF:13
LH:0
end_of_record
TN:
SF:/opt/ros/foxy/include/rclcpp/create_publisher.hpp
FN:43,_ZN6rclcpp16create_publisherIN15statistics_msgs3msg15MetricsMessage_ISaIvEEES4_NS_9PublisherIS5_S4_EENS_4NodeEEESt10shared_ptrIT1_ERT2_RKNSt7__cxx1112basic_stringIcSt11char_traitsIcESaIcEEERKNS_3QoSERKNS_29PublisherOptionsWithAllocatorIT0_EE
FN:43,_ZN6rclcpp16create_publisherIN8std_msgs3msg7String_ISaIvEEES4_NS_9PublisherIS5_S4_EENS_4NodeEEESt10shared_ptrIT1_ERT2_RKNSt7__cxx1112basic_stringIcSt11char_traitsIcESaIcEEERKNS_3QoSERKNS_29PublisherOptionsWithAllocatorIT0_EE
FNDA:1,_ZN6rclcpp16create_publisherIN8std_msgs3msg7String_ISaIvEEES4_NS_9PublisherIS5_S4_EENS_4NodeEEESt10shared_ptrIT1_ERT2_RKNSt7__cxx1112basic_stringIcSt11char_traitsIcESaIcEEERKNS_3QoSERKNS_29PublisherOptionsWithAllocatorIT0_EE
FNDA:0,_ZN6rclcpp16create_publisherIN15statistics_msgs3msg15MetricsMessage_ISaIvEEES4_NS_9PublisherIS5_S4_EENS_4NodeEEESt10shared_ptrIT1_ERT2_RKNSt7__cxx1112basic_stringIcSt11char_traitsIcESaIcEEERKNS_3QoSERKNS_29PublisherOptionsWithAllocatorIT0_EE
FNF:2
FNH:1
DA:43,1
DA:54,2
DA:57,2
DA:64,1
DA:66,2
LF:5
LH:5
end_of_record
TN:
SF:/opt/ros/foxy/include/rclcpp/create_subscription.hpp
FN:80,_ZN6rclcpp19create_subscriptionIN8std_msgs3msg7String_ISaIvEEESt5_BindIFM17MinimalSubscriberKFvSt10shared_ptrIS5_EEPS7_St12_PlaceholderILi1EEEES4_S5_NS_12SubscriptionIS5_S4_NS_23message_memory_strategy21MessageMemoryStrategyIS5_S4_EEEESK_RNS_4NodeEEES8_IT3_EOT5_RKNSt7__cxx1112basic_stringIcSt11char_traitsIcESaIcEEERKNS_3QoSEOT0_RKNS_32SubscriptionOptionsWithAllocatorIT1_EENT4_9SharedPtrE
FN:123,_ZZN6rclcpp19create_subscriptionIN8std_msgs3msg7String_ISaIvEEESt5_BindIFM17MinimalSubscriberKFvSt10shared_ptrIS5_EEPS7_St12_PlaceholderILi1EEEES4_S5_NS_12SubscriptionIS5_S4_NS_23message_memory_strategy21MessageMemoryStrategyIS5_S4_EEEESK_RNS_4NodeEEES8_IT3_EOT5_RKNSt7__cxx1112basic_stringIcSt11char_traitsIcESaIcEEERKNS_3QoSEOT0_RKNS_32SubscriptionOptionsWithAllocatorIT1_EENT4_9SharedPtrEENKUlvE_clEv
FNDA:1,_ZN6rclcpp19create_subscriptionIN8std_msgs3msg7String_ISaIvEEESt5_BindIFM17MinimalSubscriberKFvSt10shared_ptrIS5_EEPS7_St12_PlaceholderILi1EEEES4_S5_NS_12SubscriptionIS5_S4_NS_23message_memory_strategy21MessageMemoryStrategyIS5_S4_EEEESK_RNS_4NodeEEES8_IT3_EOT5_RKNSt7__cxx1112basic_stringIcSt11char_traitsIcESaIcEEERKNS_3QoSEOT0_RKNS_32SubscriptionOptionsWithAllocatorIT1_EENT4_9SharedPtrE
FNDA:0,_ZZN6rclcpp19create_subscriptionIN8std_msgs3msg7String_ISaIvEEESt5_BindIFM17MinimalSubscriberKFvSt10shared_ptrIS5_EEPS7_St12_PlaceholderILi1EEEES4_S5_NS_12SubscriptionIS5_S4_NS_23message_memory_strategy21MessageMemoryStrategyIS5_S4_EEEESK_RNS_4NodeEEES8_IT3_EOT5_RKNSt7__cxx1112basic_stringIcSt11char_traitsIcESaIcEEERKNS_3QoSEOT0_RKNS_32SubscriptionOptionsWithAllocatorIT1_EENT4_9SharedPtrEENKUlvE_clEv
FNF:2
FNH:1
DA:80,1
DA:94,2
DA:97,2
DA:99,1
DA:101,1
DA:103,0
DA:107,0
DA:110,0
DA:113,0
DA:116,0
DA:118,0
DA:122,0
DA:123,0
DA:124,0
DA:125,0
DA:126,0
DA:130,0
DA:132,0
DA:134,0
DA:136,0
DA:137,0
DA:141,0
DA:144,3
DA:151,2
DA:152,1
DA:154,2
LF:26
LH:9
end_of_record
TN:
SF:/opt/ros/foxy/include/rclcpp/create_timer.hpp
FN:90,_ZN6rclcpp17create_wall_timerIlSt5ratioILl1ELl1000000000EEZNS_19create_subscriptionIN8std_msgs3msg7String_ISaIvEEESt5_BindIFM17MinimalSubscriberKFvSt10shared_ptrIS8_EEPSA_St12_PlaceholderILi1EEEES7_S8_NS_12SubscriptionIS8_S7_NS_23message_memory_strategy21MessageMemoryStrategyIS8_S7_EEEESN_RNS_4NodeEEESB_IT3_EOT5_RKNSt7__cxx1112basic_stringIcSt11char_traitsIcESaIcEEERKNS_3QoSEOT0_RKNS_32SubscriptionOptionsWithAllocatorIT1_EENT4_9SharedPtrEEUlvE_EENS_9WallTimerIS19_XLDn0EEE9SharedPtrENSt6chrono8durationIT_S16_EES19_SB_INS_13CallbackGroupEEPNS_15node_interfaces17NodeBaseInterfaceEPNS1P_19NodeTimersInterfaceE
FN:90,_ZN6rclcpp17create_wall_timerIlSt5ratioILl1ELl1000EESt5_BindIFM16MinimalPublisherFvvEPS4_EEEENS_9WallTimerIT1_XLDn0EEE9SharedPtrENSt6chrono8durationIT_T0_EESB_St10shared_ptrINS_13CallbackGroupEEPNS_15node_interfaces17NodeBaseInterfaceEPNSM_19NodeTimersInterfaceE
FNDA:0,_ZN6rclcpp17create_wall_timerIlSt5ratioILl1ELl1000000000EEZNS_19create_subscriptionIN8std_msgs3msg7String_ISaIvEEESt5_BindIFM17MinimalSubscriberKFvSt10shared_ptrIS8_EEPSA_St12_PlaceholderILi1EEEES7_S8_NS_12SubscriptionIS8_S7_NS_23message_memory_strategy21MessageMemoryStrategyIS8_S7_EEEESN_RNS_4NodeEEESB_IT3_EOT5_RKNSt7__cxx1112basic_stringIcSt11char_traitsIcESaIcEEERKNS_3QoSEOT0_RKNS_32SubscriptionOptionsWithAllocatorIT1_EENT4_9SharedPtrEEUlvE_EENS_9WallTimerIS19_XLDn0EEE9SharedPtrENSt6chrono8durationIT_S16_EES19_SB_INS_13CallbackGroupEEPNS_15node_interfaces17NodeBaseInterfaceEPNS1P_19NodeTimersInterfaceE
FNDA:1,_ZN6rclcpp17create_wall_timerIlSt5ratioILl1ELl1000EESt5_BindIFM16MinimalPublisherFvvEPS4_EEEENS_9WallTimerIT1_XLDn0EEE9SharedPtrENSt6chrono8durationIT_T0_EESB_St10shared_ptrINS_13CallbackGroupEEPNS_15node_interfaces17NodeBaseInterfaceEPNSM_19NodeTimersInterfaceE
FNF:2
FNH:1
DA:90,1
DA:97,1
DA:98,0
DA:101,1
DA:102,0
DA:105,1
DA:106,0
DA:111,1
DA:121,1
DA:124,1
DA:126,0
DA:129,1
DA:130,1
DA:132,0
DA:135,1
DA:136,1
DA:137,1
DA:138,2
LF:18
LH:13
end_of_record
TN:
SF:/opt/ros/foxy/include/rclcpp/detail/resolve_enable_topic_statistics.hpp
FN:30,_ZN6rclcpp6detail31resolve_enable_topic_statisticsINS_32SubscriptionOptionsWithAllocatorISaIvEEENS_15node_interfaces17NodeBaseInterfaceEEEbRKT_RKT0_
FNDA:2,_ZN6rclcpp6detail31resolve_enable_topic_statisticsINS_32SubscriptionOptionsWithAllocatorISaIvEEENS_15node_interfaces17NodeBaseInterfaceEEEbRKT_RKT0_
FNF:1
FNH:1
DA:30,2
DA:33,2
DA:34,0
DA:35,0
DA:36,0
DA:37,0
DA:38,0
DA:39,0
DA:40,2
DA:41,2
DA:42,2
DA:43,0
DA:44,0
DA:47,2
LF:14
LH:6
end_of_record
TN:
SF:/opt/ros/foxy/include/rclcpp/detail/resolve_intra_process_buffer_type.hpp
FN:32,_ZN6rclcpp6detail33resolve_intra_process_buffer_typeIN8std_msgs3msg7String_ISaIvEEES5_EENS_22IntraProcessBufferTypeES7_RKNS_23AnySubscriptionCallbackIT_T0_EE
FNDA:0,_ZN6rclcpp6detail33resolve_intra_process_buffer_typeIN8std_msgs3msg7String_ISaIvEEES5_EENS_22IntraProcessBufferTypeES7_RKNS_23AnySubscriptionCallbackIT_T0_EE
FNF:1
FNH:0
DA:32,0
DA:36,0
DA:39,0
DA:40,0
DA:41,0
DA:43,0
DA:47,0
LF:7
LH:0
end_of_record
TN:
SF:/opt/ros/foxy/include/rclcpp/detail/resolve_use_intra_process.hpp
FN:31,_ZN6rclcpp6detail25resolve_use_intra_processINS_29PublisherOptionsWithAllocatorISaIvEEENS_15node_interfaces17NodeBaseInterfaceEEEbRKT_RKT0_
FN:31,_ZN6rclcpp6detail25resolve_use_intra_processINS_32SubscriptionOptionsWithAllocatorISaIvEEENS_15node_interfaces17NodeBaseInterfaceEEEbRKT_RKT0_
FNDA:1,_ZN6rclcpp6detail25resolve_use_intra_processINS_29PublisherOptionsWithAllocatorISaIvEEENS_15node_interfaces17NodeBaseInterfaceEEEbRKT_RKT0_
FNDA:2,_ZN6rclcpp6detail25resolve_use_intra_processINS_32SubscriptionOptionsWithAllocatorISaIvEEENS_15node_interfaces17NodeBaseInterfaceEEEbRKT_RKT0_
FNF:2
FNH:2
DA:31,3
DA:34,3
DA:35,0
DA:36,0
DA:37,0
DA:38,0
DA:39,0
DA:40,0
DA:41,3
DA:42,3
DA:43,3
DA:44,0
DA:45,0
DA:49,3
LF:14
LH:6
end_of_record
TN:
SF:/opt/ros/foxy/include/rclcpp/exceptions/exceptions.hpp
FN:140,_ZN6rclcpp10exceptions12RCLErrorBaseD0Ev
FN:140,_ZN6rclcpp10exceptions12RCLErrorBaseD2Ev
FNDA:0,_ZN6rclcpp10exceptions12RCLErrorBaseD0Ev
FNDA:12,_ZN6rclcpp10exceptions12RCLErrorBaseD2Ev
FNF:2
FNH:1
DA:140,12
LF:1
LH:1
end_of_record
TN:
SF:/opt/ros/foxy/include/rclcpp/experimental/buffers/buffer_implementation_base.hpp
FN:29,_ZN6rclcpp12experimental7buffers24BufferImplementationBaseISt10unique_ptrIN8std_msgs3msg7String_ISaIvEEESt14default_deleteIS8_EEED2Ev
FN:29,_ZN6rclcpp12experimental7buffers24BufferImplementationBaseISt10unique_ptrIN8std_msgs3msg7String_ISaIvEEESt14default_deleteIS8_EEED0Ev
FN:29,_ZN6rclcpp12experimental7buffers24BufferImplementationBaseISt10shared_ptrIKN8std_msgs3msg7String_ISaIvEEEEED0Ev
FN:29,_ZN6rclcpp12experimental7buffers24BufferImplementationBaseISt10shared_ptrIKN8std_msgs3msg7String_ISaIvEEEEED2Ev
FNDA:0,_ZN6rclcpp12experimental7buffers24BufferImplementationBaseISt10unique_ptrIN8std_msgs3msg7String_ISaIvEEESt14default_deleteIS8_EEED0Ev
FNDA:0,_ZN6rclcpp12experimental7buffers24BufferImplementationBaseISt10unique_ptrIN8std_msgs3msg7String_ISaIvEEESt14default_deleteIS8_EEED2Ev
FNDA:0,_ZN6rclcpp12experimental7buffers24BufferImplementationBaseISt10shared_ptrIKN8std_msgs3msg7String_ISaIvEEEEED2Ev
FNDA:0,_ZN6rclcpp12experimental7buffers24BufferImplementationBaseISt10shared_ptrIKN8std_msgs3msg7String_ISaIvEEEEED0Ev
FNF:4
FNH:0
DA:29,0
LF:1
LH:0
end_of_record
TN:
SF:/opt/ros/foxy/include/rclcpp/experimental/buffers/intra_process_buffer.hpp
FN:39,_ZN6rclcpp12experimental7buffers22IntraProcessBufferBaseD2Ev
FN:39,_ZN6rclcpp12experimental7buffers22IntraProcessBufferBaseD0Ev
FN:56,_ZN6rclcpp12experimental7buffers18IntraProcessBufferIN8std_msgs3msg7String_ISaIvEEES6_St14default_deleteIS7_EED0Ev
FN:56,_ZN6rclcpp12experimental7buffers18IntraProcessBufferIN8std_msgs3msg7String_ISaIvEEES6_St14default_deleteIS7_EED2Ev
FN:84,_ZN6rclcpp12experimental7buffers23TypedIntraProcessBufferIN8std_msgs3msg7String_ISaIvEEES6_St14default_deleteIS7_ESt10unique_ptrIS7_S9_EEC2ESA_INS1_24BufferImplementationBaseISB_EES8_ISE_EESt10shared_ptrIS6_E
FN:84,_ZN6rclcpp12experimental7buffers23TypedIntraProcessBufferIN8std_msgs3msg7String_ISaIvEEES6_St14default_deleteIS7_ESt10shared_ptrIKS7_EEC2ESt10unique_ptrINS1_24BufferImplementationBaseISC_EES8_ISG_EESA_IS6_E
FN:103,_ZN6rclcpp12experimental7buffers23TypedIntraProcessBufferIN8std_msgs3msg7String_ISaIvEEES6_St14default_deleteIS7_ESt10unique_ptrIS7_S9_EED2Ev
FN:103,_ZN6rclcpp12experimental7buffers23TypedIntraProcessBufferIN8std_msgs3msg7String_ISaIvEEES6_St14default_deleteIS7_ESt10shared_ptrIKS7_EED2Ev
FN:103,_ZN6rclcpp12experimental7buffers23TypedIntraProcessBufferIN8std_msgs3msg7String_ISaIvEEES6_St14default_deleteIS7_ESt10shared_ptrIKS7_EED0Ev
FN:103,_ZN6rclcpp12experimental7buffers23TypedIntraProcessBufferIN8std_msgs3msg7String_ISaIvEEES6_St14default_deleteIS7_ESt10unique_ptrIS7_S9_EED0Ev
FN:105,_ZN6rclcpp12experimental7buffers23TypedIntraProcessBufferIN8std_msgs3msg7String_ISaIvEEES6_St14default_deleteIS7_ESt10unique_ptrIS7_S9_EE10add_sharedESt10shared_ptrIKS7_E
FN:105,_ZN6rclcpp12experimental7buffers23TypedIntraProcessBufferIN8std_msgs3msg7String_ISaIvEEES6_St14default_deleteIS7_ESt10shared_ptrIKS7_EE10add_sharedESC_
FN:110,_ZN6rclcpp12experimental7buffers23TypedIntraProcessBufferIN8std_msgs3msg7String_ISaIvEEES6_St14default_deleteIS7_ESt10unique_ptrIS7_S9_EE10add_uniqueESB_
FN:110,_ZN6rclcpp12experimental7buffers23TypedIntraProcessBufferIN8std_msgs3msg7String_ISaIvEEES6_St14default_deleteIS7_ESt10shared_ptrIKS7_EE10add_uniqueESt10unique_ptrIS7_S9_E
FN:115,_ZN6rclcpp12experimental7buffers23TypedIntraProcessBufferIN8std_msgs3msg7String_ISaIvEEES6_St14default_deleteIS7_ESt10shared_ptrIKS7_EE14consume_sharedEv
FN:115,_ZN6rclcpp12experimental7buffers23TypedIntraProcessBufferIN8std_msgs3msg7String_ISaIvEEES6_St14default_deleteIS7_ESt10unique_ptrIS7_S9_EE14consume_sharedEv
FN:120,_ZN6rclcpp12experimental7buffers23TypedIntraProcessBufferIN8std_msgs3msg7String_ISaIvEEES6_St14default_deleteIS7_ESt10unique_ptrIS7_S9_EE14consume_uniqueEv
FN:120,_ZN6rclcpp12experimental7buffers23TypedIntraProcessBufferIN8std_msgs3msg7String_ISaIvEEES6_St14default_deleteIS7_ESt10shared_ptrIKS7_EE14consume_uniqueEv
FN:125,_ZNK6rclcpp12experimental7buffers23TypedIntraProcessBufferIN8std_msgs3msg7String_ISaIvEEES6_St14default_deleteIS7_ESt10shared_ptrIKS7_EE8has_dataEv
FN:125,_ZNK6rclcpp12experimental7buffers23TypedIntraProcessBufferIN8std_msgs3msg7String_ISaIvEEES6_St14default_deleteIS7_ESt10unique_ptrIS7_S9_EE8has_dataEv
FN:130,_ZN6rclcpp12experimental7buffers23TypedIntraProcessBufferIN8std_msgs3msg7String_ISaIvEEES6_St14default_deleteIS7_ESt10unique_ptrIS7_S9_EE5clearEv
FN:130,_ZN6rclcpp12experimental7buffers23TypedIntraProcessBufferIN8std_msgs3msg7String_ISaIvEEES6_St14default_deleteIS7_ESt10shared_ptrIKS7_EE5clearEv
FN:135,_ZNK6rclcpp12experimental7buffers23TypedIntraProcessBufferIN8std_msgs3msg7String_ISaIvEEES6_St14default_deleteIS7_ESt10shared_ptrIKS7_EE22use_take_shared_methodEv
FN:135,_ZNK6rclcpp12experimental7buffers23TypedIntraProcessBufferIN8std_msgs3msg7String_ISaIvEEES6_St14default_deleteIS7_ESt10unique_ptrIS7_S9_EE22use_take_shared_methodEv
FN:150,_ZN6rclcpp12experimental7buffers23TypedIntraProcessBufferIN8std_msgs3msg7String_ISaIvEEES6_St14default_deleteIS7_ESt10shared_ptrIKS7_EE15add_shared_implISC_EENSt9enable_ifIXsrSt7is_sameIT_SC_E5valueEvE4typeESC_
FN:160,_ZN6rclcpp12experimental7buffers23TypedIntraProcessBufferIN8std_msgs3msg7String_ISaIvEEES6_St14default_deleteIS7_ESt10unique_ptrIS7_S9_EE15add_shared_implISB_EENSt9enable_ifIXsrSt7is_sameIT_SB_E5valueEvE4typeESt10shared_ptrIKS7_E
FN:184,_ZN6rclcpp12experimental7buffers23TypedIntraProcessBufferIN8std_msgs3msg7String_ISaIvEEES6_St14default_deleteIS7_ESt10shared_ptrIKS7_EE19consume_shared_implISC_EENSt9enable_ifIXsrSt7is_sameIT_SC_E5valueESC_E4typeEv
FN:195,_ZN6rclcpp12experimental7buffers23TypedIntraProcessBufferIN8std_msgs3msg7String_ISaIvEEES6_St14default_deleteIS7_ESt10unique_ptrIS7_S9_EE19consume_shared_implISB_EENSt9enable_ifIXsrSt7is_sameIT_SB_E5valueESt10shared_ptrIKS7_EE4typeEv
FN:207,_ZN6rclcpp12experimental7buffers23TypedIntraProcessBufferIN8std_msgs3msg7String_ISaIvEEES6_St14default_deleteIS7_ESt10shared_ptrIKS7_EE19consume_unique_implISC_EENSt9enable_ifIXsrSt7is_sameIT_SC_E5valueESt10unique_ptrIS7_S9_EE4typeEv
FN:230,_ZN6rclcpp12experimental7buffers23TypedIntraProcessBufferIN8std_msgs3msg7String_ISaIvEEES6_St14default_deleteIS7_ESt10unique_ptrIS7_S9_EE19consume_unique_implISB_EENSt9enable_ifIXsrSt7is_sameIT_SB_E5valueESB_E4typeEv
FNDA:0,_ZN6rclcpp12experimental7buffers23TypedIntraProcessBufferIN8std_msgs3msg7String_ISaIvEEES6_St14default_deleteIS7_ESt10shared_ptrIKS7_EE14consume_sharedEv
FNDA:0,_ZN6rclcpp12experimental7buffers23TypedIntraProcessBufferIN8std_msgs3msg7String_ISaIvEEES6_St14default_deleteIS7_ESt10unique_ptrIS7_S9_EE10add_sharedESt10shared_ptrIKS7_E
FNDA:0,_ZNK6rclcpp12experimental7buffers23TypedIntraProcessBufferIN8std_msgs3msg7String_ISaIvEEES6_St14default_deleteIS7_ESt10unique_ptrIS7_S9_EE22use_take_shared_methodEv
FNDA:0,_ZN6rclcpp12experimental7buffers23TypedIntraProcessBufferIN8std_msgs3msg7String_ISaIvEEES6_St14default_deleteIS7_ESt10unique_ptrIS7_S9_EED0Ev
FNDA:0,_ZN6rclcpp12experimental7buffers18IntraProcessBufferIN8std_msgs3msg7String_ISaIvEEES6_St14default_deleteIS7_EED2Ev
FNDA:0,_ZN6rclcpp12experimental7buffers23TypedIntraProcessBufferIN8std_msgs3msg7String_ISaIvEEES6_St14default_deleteIS7_ESt10shared_ptrIKS7_EE5clearEv
FNDA:0,_ZN6rclcpp12experimental7buffers23TypedIntraProcessBufferIN8std_msgs3msg7String_ISaIvEEES6_St14default_deleteIS7_ESt10shared_ptrIKS7_EE14consume_uniqueEv
FNDA:0,_ZNK6rclcpp12experimental7buffers23TypedIntraProcessBufferIN8std_msgs3msg7String_ISaIvEEES6_St14default_deleteIS7_ESt10unique_ptrIS7_S9_EE8has_dataEv
FNDA:0,_ZN6rclcpp12experimental7buffers23TypedIntraProcessBufferIN8std_msgs3msg7String_ISaIvEEES6_St14default_deleteIS7_ESt10shared_ptrIKS7_EEC2ESt10unique_ptrINS1_24BufferImplementationBaseISC_EES8_ISG_EESA_IS6_E
FNDA:0,_ZN6rclcpp12experimental7buffers23TypedIntraProcessBufferIN8std_msgs3msg7String_ISaIvEEES6_St14default_deleteIS7_ESt10unique_ptrIS7_S9_EE19consume_unique_implISB_EENSt9enable_ifIXsrSt7is_sameIT_SB_E5valueESB_E4typeEv
FNDA:0,_ZN6rclcpp12experimental7buffers23TypedIntraProcessBufferIN8std_msgs3msg7String_ISaIvEEES6_St14default_deleteIS7_ESt10unique_ptrIS7_S9_EE14consume_sharedEv
FNDA:0,_ZN6rclcpp12experimental7buffers23TypedIntraProcessBufferIN8std_msgs3msg7String_ISaIvEEES6_St14default_deleteIS7_ESt10shared_ptrIKS7_EE10add_sharedESC_
FNDA:0,_ZN6rclcpp12experimental7buffers18IntraProcessBufferIN8std_msgs3msg7String_ISaIvEEES6_St14default_deleteIS7_EED0Ev
FNDA:0,_ZNK6rclcpp12experimental7buffers23TypedIntraProcessBufferIN8std_msgs3msg7String_ISaIvEEES6_St14default_deleteIS7_ESt10shared_ptrIKS7_EE22use_take_shared_methodEv
FNDA:0,_ZNK6rclcpp12experimental7buffers23TypedIntraProcessBufferIN8std_msgs3msg7String_ISaIvEEES6_St14default_deleteIS7_ESt10shared_ptrIKS7_EE8has_dataEv
FNDA:0,_ZN6rclcpp12experimental7buffers23TypedIntraProcessBufferIN8std_msgs3msg7String_ISaIvEEES6_St14default_deleteIS7_ESt10unique_ptrIS7_S9_EEC2ESA_INS1_24BufferImplementationBaseISB_EES8_ISE_EESt10shared_ptrIS6_E
FNDA:0,_ZN6rclcpp12experimental7buffers23TypedIntraProcessBufferIN8std_msgs3msg7String_ISaIvEEES6_St14default_deleteIS7_ESt10unique_ptrIS7_S9_EE14consume_uniqueEv
FNDA:0,_ZN6rclcpp12experimental7buffers23TypedIntraProcessBufferIN8std_msgs3msg7String_ISaIvEEES6_St14default_deleteIS7_ESt10unique_ptrIS7_S9_EE10add_uniqueESB_
FNDA:0,_ZN6rclcpp12experimental7buffers23TypedIntraProcessBufferIN8std_msgs3msg7String_ISaIvEEES6_St14default_deleteIS7_ESt10unique_ptrIS7_S9_EE15add_shared_implISB_EENSt9enable_ifIXsrSt7is_sameIT_SB_E5valueEvE4typeESt10shared_ptrIKS7_E
FNDA:0,_ZN6rclcpp12experimental7buffers23TypedIntraProcessBufferIN8std_msgs3msg7String_ISaIvEEES6_St14default_deleteIS7_ESt10unique_ptrIS7_S9_EED2Ev
FNDA:0,_ZN6rclcpp12experimental7buffers22IntraProcessBufferBaseD2Ev
FNDA:0,_ZN6rclcpp12experimental7buffers23TypedIntraProcessBufferIN8std_msgs3msg7String_ISaIvEEES6_St14default_deleteIS7_ESt10shared_ptrIKS7_EED2Ev
FNDA:0,_ZN6rclcpp12experimental7buffers23TypedIntraProcessBufferIN8std_msgs3msg7String_ISaIvEEES6_St14default_deleteIS7_ESt10shared_ptrIKS7_EE15add_shared_implISC_EENSt9enable_ifIXsrSt7is_sameIT_SC_E5valueEvE4typeESC_
FNDA:0,_ZN6rclcpp12experimental7buffers23TypedIntraProcessBufferIN8std_msgs3msg7String_ISaIvEEES6_St14default_deleteIS7_ESt10shared_ptrIKS7_EE19consume_shared_implISC_EENSt9enable_ifIXsrSt7is_sameIT_SC_E5valueESC_E4typeEv
FNDA:0,_ZN6rclcpp12experimental7buffers23TypedIntraProcessBufferIN8std_msgs3msg7String_ISaIvEEES6_St14default_deleteIS7_ESt10shared_ptrIKS7_EE10add_uniqueESt10unique_ptrIS7_S9_E
FNDA:0,_ZN6rclcpp12experimental7buffers23TypedIntraProcessBufferIN8std_msgs3msg7String_ISaIvEEES6_St14default_deleteIS7_ESt10shared_ptrIKS7_EE19consume_unique_implISC_EENSt9enable_ifIXsrSt7is_sameIT_SC_E5valueESt10unique_ptrIS7_S9_EE4typeEv
FNDA:0,_ZN6rclcpp12experimental7buffers22IntraProcessBufferBaseD0Ev
FNDA:0,_ZN6rclcpp12experimental7buffers23TypedIntraProcessBufferIN8std_msgs3msg7String_ISaIvEEES6_St14default_deleteIS7_ESt10unique_ptrIS7_S9_EE19consume_shared_implISB_EENSt9enable_ifIXsrSt7is_sameIT_SB_E5valueESt10shared_ptrIKS7_EE4typeEv
FNDA:0,_ZN6rclcpp12experimental7buffers23TypedIntraProcessBufferIN8std_msgs3msg7String_ISaIvEEES6_St14default_deleteIS7_ESt10shared_ptrIKS7_EED0Ev
FNDA:0,_ZN6rclcpp12experimental7buffers23TypedIntraProcessBufferIN8std_msgs3msg7String_ISaIvEEES6_St14default_deleteIS7_ESt10unique_ptrIS7_S9_EE5clearEv
FNF:30
FNH:0
DA:39,0
DA:56,0
DA:84,0
DA:87,0
DA:88,0
DA:90,0
DA:91,0
DA:94,0
DA:96,0
DA:97,0
DA:99,0
DA:101,0
DA:103,0
DA:105,0
DA:107,0
DA:108,0
DA:110,0
DA:112,0
DA:113,0
DA:115,0
DA:117,0
DA:120,0
DA:122,0
DA:125,0
DA:127,0
DA:130,0
DA:132,0
DA:133,0
DA:135,0
DA:137,0
DA:150,0
DA:152,0
DA:153,0
DA:160,0
DA:165,0
DA:166,0
DA:167,0
DA:168,0
DA:169,0
DA:170,0
DA:172,0
DA:175,0
DA:176,0
DA:184,0
DA:186,0
DA:195,0
DA:198,0
DA:207,0
DA:209,0
DA:211,0
DA:212,0
DA:213,0
DA:214,0
DA:215,0
DA:216,0
DA:218,0
DA:221,0
DA:230,0
DA:232,0
LF:59
LH:0
end_of_record
TN:
SF:/opt/ros/foxy/include/rclcpp/experimental/buffers/ring_buffer_implementation.hpp
FN:44,_ZN6rclcpp12experimental7buffers24RingBufferImplementationISt10unique_ptrIN8std_msgs3msg7String_ISaIvEEESt14default_deleteIS8_EEEC2Em
FN:44,_ZN6rclcpp12experimental7buffers24RingBufferImplementationISt10shared_ptrIKN8std_msgs3msg7String_ISaIvEEEEEC2Em
FN:56,_ZN6rclcpp12experimental7buffers24RingBufferImplementationISt10unique_ptrIN8std_msgs3msg7String_ISaIvEEESt14default_deleteIS8_EEED0Ev
FN:56,_ZN6rclcpp12experimental7buffers24RingBufferImplementationISt10shared_ptrIKN8std_msgs3msg7String_ISaIvEEEEED2Ev
FN:56,_ZN6rclcpp12experimental7buffers24RingBufferImplementationISt10unique_ptrIN8std_msgs3msg7String_ISaIvEEESt14default_deleteIS8_EEED2Ev
FN:56,_ZN6rclcpp12experimental7buffers24RingBufferImplementationISt10shared_ptrIKN8std_msgs3msg7String_ISaIvEEEEED0Ev
FN:58,_ZN6rclcpp12experimental7buffers24RingBufferImplementationISt10unique_ptrIN8std_msgs3msg7String_ISaIvEEESt14default_deleteIS8_EEE7enqueueESB_
FN:58,_ZN6rclcpp12experimental7buffers24RingBufferImplementationISt10shared_ptrIKN8std_msgs3msg7String_ISaIvEEEEE7enqueueESA_
FN:72,_ZN6rclcpp12experimental7buffers24RingBufferImplementationISt10shared_ptrIKN8std_msgs3msg7String_ISaIvEEEEE7dequeueEv
FN:72,_ZN6rclcpp12experimental7buffers24RingBufferImplementationISt10unique_ptrIN8std_msgs3msg7String_ISaIvEEESt14default_deleteIS8_EEE7dequeueEv
FN:89,_ZN6rclcpp12experimental7buffers24RingBufferImplementationISt10unique_ptrIN8std_msgs3msg7String_ISaIvEEESt14default_deleteIS8_EEE4nextEm
FN:89,_ZN6rclcpp12experimental7buffers24RingBufferImplementationISt10shared_ptrIKN8std_msgs3msg7String_ISaIvEEEEE4nextEm
FN:94,_ZNK6rclcpp12experimental7buffers24RingBufferImplementationISt10unique_ptrIN8std_msgs3msg7String_ISaIvEEESt14default_deleteIS8_EEE8has_dataEv
FN:94,_ZNK6rclcpp12experimental7buffers24RingBufferImplementationISt10shared_ptrIKN8std_msgs3msg7String_ISaIvEEEEE8has_dataEv
FN:99,_ZN6rclcpp12experimental7buffers24RingBufferImplementationISt10unique_ptrIN8std_msgs3msg7String_ISaIvEEESt14default_deleteIS8_EEE7is_fullEv
FN:99,_ZN6rclcpp12experimental7buffers24RingBufferImplementationISt10shared_ptrIKN8std_msgs3msg7String_ISaIvEEEEE7is_fullEv
FN:104,_ZN6rclcpp12experimental7buffers24RingBufferImplementationISt10unique_ptrIN8std_msgs3msg7String_ISaIvEEESt14default_deleteIS8_EEE5clearEv
FN:104,_ZN6rclcpp12experimental7buffers24RingBufferImplementationISt10shared_ptrIKN8std_msgs3msg7String_ISaIvEEEEE5clearEv
FNDA:0,_ZN6rclcpp12experimental7buffers24RingBufferImplementationISt10shared_ptrIKN8std_msgs3msg7String_ISaIvEEEEEC2Em
FNDA:0,_ZNK6rclcpp12experimental7buffers24RingBufferImplementationISt10unique_ptrIN8std_msgs3msg7String_ISaIvEEESt14default_deleteIS8_EEE8has_dataEv
FNDA:0,_ZN6rclcpp12experimental7buffers24RingBufferImplementationISt10unique_ptrIN8std_msgs3msg7String_ISaIvEEESt14default_deleteIS8_EEED0Ev
FNDA:0,_ZN6rclcpp12experimental7buffers24RingBufferImplementationISt10unique_ptrIN8std_msgs3msg7String_ISaIvEEESt14default_deleteIS8_EEE7enqueueESB_
FNDA:0,_ZN6rclcpp12experimental7buffers24RingBufferImplementationISt10shared_ptrIKN8std_msgs3msg7String_ISaIvEEEEE7enqueueESA_
FNDA:0,_ZN6rclcpp12experimental7buffers24RingBufferImplementationISt10unique_ptrIN8std_msgs3msg7String_ISaIvEEESt14default_deleteIS8_EEE7is_fullEv
FNDA:0,_ZN6rclcpp12experimental7buffers24RingBufferImplementationISt10unique_ptrIN8std_msgs3msg7String_ISaIvEEESt14default_deleteIS8_EEE7dequeueEv
FNDA:0,_ZN6rclcpp12experimental7buffers24RingBufferImplementationISt10unique_ptrIN8std_msgs3msg7String_ISaIvEEESt14default_deleteIS8_EEE4nextEm
FNDA:0,_ZN6rclcpp12experimental7buffers24RingBufferImplementationISt10shared_ptrIKN8std_msgs3msg7String_ISaIvEEEEE7dequeueEv
FNDA:0,_ZN6rclcpp12experimental7buffers24RingBufferImplementationISt10unique_ptrIN8std_msgs3msg7String_ISaIvEEESt14default_deleteIS8_EEEC2Em
FNDA:0,_ZN6rclcpp12experimental7buffers24RingBufferImplementationISt10shared_ptrIKN8std_msgs3msg7String_ISaIvEEEEE4nextEm
FNDA:0,_ZN6rclcpp12experimental7buffers24RingBufferImplementationISt10shared_ptrIKN8std_msgs3msg7String_ISaIvEEEEED0Ev
FNDA:0,_ZN6rclcpp12experimental7buffers24RingBufferImplementationISt10shared_ptrIKN8std_msgs3msg7String_ISaIvEEEEE5clearEv
FNDA:0,_ZN6rclcpp12experimental7buffers24RingBufferImplementationISt10unique_ptrIN8std_msgs3msg7String_ISaIvEEESt14default_deleteIS8_EEED2Ev
FNDA:0,_ZN6rclcpp12experimental7buffers24RingBufferImplementationISt10shared_ptrIKN8std_msgs3msg7String_ISaIvEEEEED2Ev
FNDA:0,_ZN6rclcpp12experimental7buffers24RingBufferImplementationISt10unique_ptrIN8std_msgs3msg7String_ISaIvEEESt14default_deleteIS8_EEE5clearEv
FNDA:0,_ZN6rclcpp12experimental7buffers24RingBufferImplementationISt10shared_ptrIKN8std_msgs3msg7String_ISaIvEEEEE7is_fullEv
FNDA:0,_ZNK6rclcpp12experimental7buffers24RingBufferImplementationISt10shared_ptrIKN8std_msgs3msg7String_ISaIvEEEEE8has_dataEv
FNF:18
FNH:0
DA:44,0
DA:47,0
DA:49,0
DA:51,0
DA:52,0
DA:54,0
DA:56,0
DA:58,0
DA:60,0
DA:62,0
DA:63,0
DA:65,0
DA:66,0
DA:68,0
DA:70,0
DA:72,0
DA:74,0
DA:76,0
DA:77,0
DA:78,0
DA:81,0
DA:82,0
DA:84,0
DA:86,0
DA:89,0
DA:91,0
DA:94,0
DA:96,0
DA:99,0
DA:101,0
DA:104,0
LF:31
LH:0
end_of_record
TN:
SF:/opt/ros/foxy/include/rclcpp/experimental/create_intra_process_buffer.hpp
FN:38,_ZN6rclcpp12experimental27create_intra_process_bufferIN8std_msgs3msg7String_ISaIvEEES5_St14default_deleteIS6_EEENS0_7buffers18IntraProcessBufferIT_T0_T1_E9UniquePtrENS_22IntraProcessBufferTypeE17rmw_qos_profile_tSt10shared_ptrISC_E
FNDA:0,_ZN6rclcpp12experimental27create_intra_process_bufferIN8std_msgs3msg7String_ISaIvEEES5_St14default_deleteIS6_EEENS0_7buffers18IntraProcessBufferIT_T0_T1_E9UniquePtrENS_22IntraProcessBufferTypeE17rmw_qos_profile_tSt10shared_ptrISC_E
FNF:1
FNH:0
DA:38,0
DA:46,0
DA:49,0
DA:51,0
DA:52,0
DA:56,0
DA:61,0
DA:64,0
DA:67,0
DA:69,0
DA:73,0
DA:78,0
DA:81,0
DA:84,0
DA:86,0
DA:88,0
DA:93,0
LF:17
LH:0
end_of_record
TN:
SF:/opt/ros/foxy/include/rclcpp/experimental/intra_process_manager.hpp
FN:181,_ZN6rclcpp12experimental19IntraProcessManager24do_intra_process_publishIN15statistics_msgs3msg15MetricsMessage_ISaIvEEES6_St14default_deleteIS7_EEEvmSt10unique_ptrIT_T1_ESt10shared_ptrINSt16allocator_traitsIT0_E13rebind_traitsISB_E14allocator_typeEE
FN:181,_ZN6rclcpp12experimental19IntraProcessManager24do_intra_process_publishIN8std_msgs3msg7String_ISaIvEEES6_St14default_deleteIS7_EEEvmSt10unique_ptrIT_T1_ESt10shared_ptrINSt16allocator_traitsIT0_E13rebind_traitsISB_E14allocator_typeEE
FN:243,_ZN6rclcpp12experimental19IntraProcessManager42do_intra_process_publish_and_return_sharedIN8std_msgs3msg7String_ISaIvEEES6_St14default_deleteIS7_EEESt10shared_ptrIKT_EmSt10unique_ptrISB_T1_ESA_INSt16allocator_traitsIT0_E13rebind_traitsISB_E14allocator_typeEE
FN:243,_ZN6rclcpp12experimental19IntraProcessManager42do_intra_process_publish_and_return_sharedIN15statistics_msgs3msg15MetricsMessage_ISaIvEEES6_St14default_deleteIS7_EEESt10shared_ptrIKT_EmSt10unique_ptrISB_T1_ESA_INSt16allocator_traitsIT0_E13rebind_traitsISB_E14allocator_typeEE
FN:359,_ZN6rclcpp12experimental19IntraProcessManager25add_shared_msg_to_buffersIN15statistics_msgs3msg15MetricsMessage_ISaIvEEES6_St14default_deleteIS7_EEEvSt10shared_ptrIKT_ESt6vectorImSaImEE
FN:359,_ZN6rclcpp12experimental19IntraProcessManager25add_shared_msg_to_buffersIN8std_msgs3msg7String_ISaIvEEES6_St14default_deleteIS7_EEEvSt10shared_ptrIKT_ESt6vectorImSaImEE
FN:389,_ZN6rclcpp12experimental19IntraProcessManager24add_owned_msg_to_buffersIN15statistics_msgs3msg15MetricsMessage_ISaIvEEES6_St14default_deleteIS7_EEEvSt10unique_ptrIT_T1_ESt6vectorImSaImEESt10shared_ptrINSt16allocator_traitsIT0_E13rebind_traitsISB_E14allocator_typeEE
FN:389,_ZN6rclcpp12experimental19IntraProcessManager24add_owned_msg_to_buffersIN8std_msgs3msg7String_ISaIvEEES6_St14default_deleteIS7_EEEvSt10unique_ptrIT_T1_ESt6vectorImSaImEESt10shared_ptrINSt16allocator_traitsIT0_E13rebind_traitsISB_E14allocator_typeEE
FNDA:0,_ZN6rclcpp12experimental19IntraProcessManager42do_intra_process_publish_and_return_sharedIN8std_msgs3msg7String_ISaIvEEES6_St14default_deleteIS7_EEESt10shared_ptrIKT_EmSt10unique_ptrISB_T1_ESA_INSt16allocator_traitsIT0_E13rebind_traitsISB_E14allocator_typeEE
FNDA:0,_ZN6rclcpp12experimental19IntraProcessManager24do_intra_process_publishIN15statistics_msgs3msg15MetricsMessage_ISaIvEEES6_St14default_deleteIS7_EEEvmSt10unique_ptrIT_T1_ESt10shared_ptrINSt16allocator_traitsIT0_E13rebind_traitsISB_E14allocator_typeEE
FNDA:0,_ZN6rclcpp12experimental19IntraProcessManager25add_shared_msg_to_buffersIN15statistics_msgs3msg15MetricsMessage_ISaIvEEES6_St14default_deleteIS7_EEEvSt10shared_ptrIKT_ESt6vectorImSaImEE
FNDA:0,_ZN6rclcpp12experimental19IntraProcessManager25add_shared_msg_to_buffersIN8std_msgs3msg7String_ISaIvEEES6_St14default_deleteIS7_EEEvSt10shared_ptrIKT_ESt6vectorImSaImEE
FNDA:0,_ZN6rclcpp12experimental19IntraProcessManager24add_owned_msg_to_buffersIN15statistics_msgs3msg15MetricsMessage_ISaIvEEES6_St14default_deleteIS7_EEEvSt10unique_ptrIT_T1_ESt6vectorImSaImEESt10shared_ptrINSt16allocator_traitsIT0_E13rebind_traitsISB_E14allocator_typeEE
FNDA:0,_ZN6rclcpp12experimental19IntraProcessManager24do_intra_process_publishIN8std_msgs3msg7String_ISaIvEEES6_St14default_deleteIS7_EEEvmSt10unique_ptrIT_T1_ESt10shared_ptrINSt16allocator_traitsIT0_E13rebind_traitsISB_E14allocator_typeEE
FNDA:0,_ZN6rclcpp12experimental19IntraProcessManager24add_owned_msg_to_buffersIN8std_msgs3msg7String_ISaIvEEES6_St14default_deleteIS7_EEEvSt10unique_ptrIT_T1_ESt6vectorImSaImEESt10shared_ptrINSt16allocator_traitsIT0_E13rebind_traitsISB_E14allocator_typeEE
FNDA:0,_ZN6rclcpp12experimental19IntraProcessManager42do_intra_process_publish_and_return_sharedIN15statistics_msgs3msg15MetricsMessage_ISaIvEEES6_St14default_deleteIS7_EEESt10shared_ptrIKT_EmSt10unique_ptrISB_T1_ESA_INSt16allocator_traitsIT0_E13rebind_traitsISB_E14allocator_typeEE
FNF:8
FNH:0
DA:181,0
DA:189,0
DA:191,0
DA:192,0
DA:194,0
DA:197,0
DA:199,0
DA:201,0
DA:203,0
DA:205,0
DA:206,0
DA:207,0
DA:208,0
DA:214,0
DA:215,0
DA:216,0
DA:220,0
DA:221,0
DA:224,0
DA:225,0
DA:229,0
DA:231,0
DA:232,0
DA:233,0
DA:234,0
DA:243,0
DA:251,0
DA:253,0
DA:254,0
DA:256,0
DA:259,0
DA:261,0
DA:263,0
DA:265,0
DA:266,0
DA:267,0
DA:268,0
DA:270,0
DA:274,0
DA:276,0
DA:277,0
DA:279,0
DA:281,0
DA:282,0
DA:283,0
DA:284,0
DA:288,0
DA:359,0
DA:363,0
DA:364,0
DA:365,0
DA:366,0
DA:368,0
DA:370,0
DA:373,0
DA:378,0
DA:380,0
DA:382,0
DA:389,0
DA:397,0
DA:398,0
DA:399,0
DA:400,0
DA:402,0
DA:404,0
DA:407,0
DA:412,0
DA:415,0
DA:417,0
DA:420,0
DA:421,0
DA:422,0
DA:423,0
DA:424,0
DA:426,0
DA:429,0
LF:76
LH:0
end_of_record
TN:
SF:/opt/ros/foxy/include/rclcpp/experimental/subscription_intra_process.hpp
FN:61,_ZN6rclcpp12experimental24SubscriptionIntraProcessIN8std_msgs3msg7String_ISaIvEEES5_St14default_deleteIS6_ES6_EC2ENS_23AnySubscriptionCallbackIS6_S5_EESt10shared_ptrIS5_ESC_INS_7ContextEERKNSt7__cxx1112basic_stringIcSt11char_traitsIcESaIcEEE17rmw_qos_profile_tNS_22IntraProcessBufferTypeE
FN:106,_ZN6rclcpp12experimental24SubscriptionIntraProcessIN8std_msgs3msg7String_ISaIvEEES5_St14default_deleteIS6_ES6_E8is_readyEP14rcl_wait_set_t
FN:112,_ZN6rclcpp12experimental24SubscriptionIntraProcessIN8std_msgs3msg7String_ISaIvEEES5_St14default_deleteIS6_ES6_E7executeEv
FN:118,_ZN6rclcpp12experimental24SubscriptionIntraProcessIN15statistics_msgs3msg15MetricsMessage_ISaIvEEES5_St14default_deleteIS6_ES6_E29provide_intra_process_messageESt10shared_ptrIKS6_E
FN:118,_ZN6rclcpp12experimental24SubscriptionIntraProcessIN8std_msgs3msg7String_ISaIvEEES5_St14default_deleteIS6_ES6_E29provide_intra_process_messageESt10shared_ptrIKS6_E
FN:125,_ZN6rclcpp12experimental24SubscriptionIntraProcessIN8std_msgs3msg7String_ISaIvEEES5_St14default_deleteIS6_ES6_E29provide_intra_process_messageESt10unique_ptrIS6_S8_E
FN:125,_ZN6rclcpp12experimental24SubscriptionIntraProcessIN15statistics_msgs3msg15MetricsMessage_ISaIvEEES5_St14default_deleteIS6_ES6_E29provide_intra_process_messageESt10unique_ptrIS6_S8_E
FN:132,_ZNK6rclcpp12experimental24SubscriptionIntraProcessIN8std_msgs3msg7String_ISaIvEEES5_St14default_deleteIS6_ES6_E22use_take_shared_methodEv
FN:139,_ZN6rclcpp12experimental24SubscriptionIntraProcessIN8std_msgs3msg7String_ISaIvEEES5_St14default_deleteIS6_ES6_E23trigger_guard_conditionEv
FN:154,_ZN6rclcpp12experimental24SubscriptionIntraProcessIN8std_msgs3msg7String_ISaIvEEES5_St14default_deleteIS6_ES6_E12execute_implIS6_EENSt9enable_ifIXntsrSt7is_sameIT_21rcutils_uint8_array_tE5valueEvE4typeEv
FNDA:0,_ZN6rclcpp12experimental24SubscriptionIntraProcessIN8std_msgs3msg7String_ISaIvEEES5_St14default_deleteIS6_ES6_E29provide_intra_process_messageESt10unique_ptrIS6_S8_E
FNDA:0,_ZN6rclcpp12experimental24SubscriptionIntraProcessIN8std_msgs3msg7String_ISaIvEEES5_St14default_deleteIS6_ES6_E23trigger_guard_conditionEv
FNDA:0,_ZN6rclcpp12experimental24SubscriptionIntraProcessIN8std_msgs3msg7String_ISaIvEEES5_St14default_deleteIS6_ES6_E7executeEv
FNDA:0,_ZN6rclcpp12experimental24SubscriptionIntraProcessIN8std_msgs3msg7String_ISaIvEEES5_St14default_deleteIS6_ES6_EC2ENS_23AnySubscriptionCallbackIS6_S5_EESt10shared_ptrIS5_ESC_INS_7ContextEERKNSt7__cxx1112basic_stringIcSt11char_traitsIcESaIcEEE17rmw_qos_profile_tNS_22IntraProcessBufferTypeE
FNDA:0,_ZN6rclcpp12experimental24SubscriptionIntraProcessIN8std_msgs3msg7String_ISaIvEEES5_St14default_deleteIS6_ES6_E12execute_implIS6_EENSt9enable_ifIXntsrSt7is_sameIT_21rcutils_uint8_array_tE5valueEvE4typeEv
FNDA:0,_ZNK6rclcpp12experimental24SubscriptionIntraProcessIN8std_msgs3msg7String_ISaIvEEES5_St14default_deleteIS6_ES6_E22use_take_shared_methodEv
FNDA:0,_ZN6rclcpp12experimental24SubscriptionIntraProcessIN8std_msgs3msg7String_ISaIvEEES5_St14default_deleteIS6_ES6_E8is_readyEP14rcl_wait_set_t
FNDA:0,_ZN6rclcpp12experimental24SubscriptionIntraProcessIN8std_msgs3msg7String_ISaIvEEES5_St14default_deleteIS6_ES6_E29provide_intra_process_messageESt10shared_ptrIKS6_E
FNDA:0,_ZN6rclcpp12experimental24SubscriptionIntraProcessIN15statistics_msgs3msg15MetricsMessage_ISaIvEEES5_St14default_deleteIS6_ES6_E29provide_intra_process_messageESt10unique_ptrIS6_S8_E
FNDA:0,_ZN6rclcpp12experimental24SubscriptionIntraProcessIN15statistics_msgs3msg15MetricsMessage_ISaIvEEES5_St14default_deleteIS6_ES6_E29provide_intra_process_messageESt10shared_ptrIKS6_E
FNF:10
FNH:0
DA:61,0
DA:69,0
DA:76,0
DA:83,0
DA:85,0
DA:86,0
DA:89,0
DA:90,0
DA:93,0
DA:101,0
DA:103,0
DA:106,0
DA:109,0
DA:112,0
DA:114,0
DA:115,0
DA:118,0
DA:120,0
DA:121,0
DA:122,0
DA:125,0
DA:127,0
DA:128,0
DA:129,0
DA:132,0
DA:134,0
DA:139,0
DA:141,0
DA:143,0
DA:154,0
DA:157,0
DA:158,0
DA:160,0
DA:161,0
DA:162,0
DA:164,0
DA:165,0
DA:167,0
LF:38
LH:0
end_of_record
TN:
SF:/opt/ros/foxy/include/rclcpp/experimental/subscription_intra_process_base.hpp
FN:42,_ZN6rclcpp12experimental28SubscriptionIntraProcessBaseC2ERKNSt7__cxx1112basic_stringIcSt11char_traitsIcESaIcEEE17rmw_qos_profile_t
FN:46,_ZN6rclcpp12experimental28SubscriptionIntraProcessBaseD2Ev
FN:46,_ZN6rclcpp12experimental28SubscriptionIntraProcessBaseD0Ev
FN:50,_ZN6rclcpp12experimental28SubscriptionIntraProcessBase36get_number_of_ready_guard_conditionsEv
FNDA:0,_ZN6rclcpp12experimental28SubscriptionIntraProcessBaseD0Ev
FNDA:0,_ZN6rclcpp12experimental28SubscriptionIntraProcessBaseC2ERKNSt7__cxx1112basic_stringIcSt11char_traitsIcESaIcEEE17rmw_qos_profile_t
FNDA:0,_ZN6rclcpp12experimental28SubscriptionIntraProcessBase36get_number_of_ready_guard_conditionsEv
FNDA:0,_ZN6rclcpp12experimental28SubscriptionIntraProcessBaseD2Ev
FNF:4
FNH:0
DA:42,0
DA:43,0
DA:44,0
DA:46,0
DA:50,0
LF:5
LH:0
end_of_record
TN:
SF:/opt/ros/foxy/include/rclcpp/logger.hpp
FN:112,_ZNK6rclcpp6Logger8get_nameEv
FNDA:48,_ZNK6rclcpp6Logger8get_nameEv
FNF:1
FNH:1
DA:112,48
DA:114,48
DA:115,0
DA:117,48
LF:4
LH:3
end_of_record
TN:
SF:/opt/ros/foxy/include/rclcpp/message_memory_strategy.hpp
FN:67,_ZN6rclcpp23message_memory_strategy21MessageMemoryStrategyIN8std_msgs3msg7String_ISaIvEEES5_EC2ESt10shared_ptrIS5_E
FN:75,_ZN6rclcpp23message_memory_strategy21MessageMemoryStrategyIN8std_msgs3msg7String_ISaIvEEES5_ED0Ev
FN:75,_ZN6rclcpp23message_memory_strategy21MessageMemoryStrategyIN8std_msgs3msg7String_ISaIvEEES5_ED2Ev
FN:78,_ZN6rclcpp23message_memory_strategy21MessageMemoryStrategyIN8std_msgs3msg7String_ISaIvEEES5_E14create_defaultEv
FN:85,_ZN6rclcpp23message_memory_strategy21MessageMemoryStrategyIN8std_msgs3msg7String_ISaIvEEES5_E14borrow_messageEv
FN:90,_ZN6rclcpp23message_memory_strategy21MessageMemoryStrategyIN8std_msgs3msg7String_ISaIvEEES5_E25borrow_serialized_messageEm
FN:95,_ZN6rclcpp23message_memory_strategy21MessageMemoryStrategyIN8std_msgs3msg7String_ISaIvEEES5_E25borrow_serialized_messageEv
FN:100,_ZN6rclcpp23message_memory_strategy21MessageMemoryStrategyIN8std_msgs3msg7String_ISaIvEEES5_E27set_default_buffer_capacityEm
FN:107,_ZN6rclcpp23message_memory_strategy21MessageMemoryStrategyIN8std_msgs3msg7String_ISaIvEEES5_E14return_messageERSt10shared_ptrIS6_E
FN:112,_ZN6rclcpp23message_memory_strategy21MessageMemoryStrategyIN8std_msgs3msg7String_ISaIvEEES5_E25return_serialized_messageERSt10shared_ptrINS_17SerializedMessageEE
FNDA:0,_ZN6rclcpp23message_memory_strategy21MessageMemoryStrategyIN8std_msgs3msg7String_ISaIvEEES5_E25borrow_serialized_messageEm
FNDA:1,_ZN6rclcpp23message_memory_strategy21MessageMemoryStrategyIN8std_msgs3msg7String_ISaIvEEES5_E14create_defaultEv
FNDA:1,_ZN6rclcpp23message_memory_strategy21MessageMemoryStrategyIN8std_msgs3msg7String_ISaIvEEES5_ED2Ev
FNDA:9,_ZN6rclcpp23message_memory_strategy21MessageMemoryStrategyIN8std_msgs3msg7String_ISaIvEEES5_E14borrow_messageEv
FNDA:9,_ZN6rclcpp23message_memory_strategy21MessageMemoryStrategyIN8std_msgs3msg7String_ISaIvEEES5_E14return_messageERSt10shared_ptrIS6_E
FNDA:1,_ZN6rclcpp23message_memory_strategy21MessageMemoryStrategyIN8std_msgs3msg7String_ISaIvEEES5_EC2ESt10shared_ptrIS5_E
FNDA:0,_ZN6rclcpp23message_memory_strategy21MessageMemoryStrategyIN8std_msgs3msg7String_ISaIvEEES5_E25borrow_serialized_messageEv
FNDA:0,_ZN6rclcpp23message_memory_strategy21MessageMemoryStrategyIN8std_msgs3msg7String_ISaIvEEES5_E27set_default_buffer_capacityEm
FNDA:0,_ZN6rclcpp23message_memory_strategy21MessageMemoryStrategyIN8std_msgs3msg7String_ISaIvEEES5_E25return_serialized_messageERSt10shared_ptrINS_17SerializedMessageEE
FNDA:0,_ZN6rclcpp23message_memory_strategy21MessageMemoryStrategyIN8std_msgs3msg7String_ISaIvEEES5_ED0Ev
FNF:10
FNH:5
DA:67,1
DA:68,1
DA:69,1
DA:70,1
DA:71,1
DA:72,1
DA:73,1
DA:75,1
DA:78,1
DA:80,1
DA:85,9
DA:87,9
DA:90,0
DA:92,0
DA:95,0
DA:97,0
DA:100,0
DA:102,0
DA:103,0
DA:107,9
DA:109,9
DA:110,9
DA:112,0
DA:115,0
DA:116,0
LF:25
LH:15
end_of_record
TN:
SF:/opt/ros/foxy/include/rclcpp/node_impl.hpp
FN:60,_ZN6rclcpp30extend_name_with_sub_namespaceERKNSt7__cxx1112basic_stringIcSt11char_traitsIcESaIcEEES7_
FN:71,_ZN6rclcpp4Node16create_publisherIN8std_msgs3msg7String_ISaIvEEES5_NS_9PublisherIS6_S5_EEEESt10shared_ptrIT1_ERKNSt7__cxx1112basic_stringIcSt11char_traitsIcESaIcEEERKNS_3QoSERKNS_29PublisherOptionsWithAllocatorIT0_EE
FN:91,_ZN6rclcpp4Node19create_subscriptionIN8std_msgs3msg7String_ISaIvEEESt5_BindIFM17MinimalSubscriberKFvSt10shared_ptrIS6_EEPS8_St12_PlaceholderILi1EEEES5_S6_NS_12SubscriptionIS6_S5_NS_23message_memory_strategy21MessageMemoryStrategyIS6_S5_EEEESL_EES9_IT3_ERKNSt7__cxx1112basic_stringIcSt11char_traitsIcESaIcEEERKNS_3QoSEOT0_RKNS_32SubscriptionOptionsWithAllocatorIT1_EENT4_9SharedPtrE
FN:109,_ZN6rclcpp4Node17create_wall_timerIlSt5ratioILl1ELl1000EESt5_BindIFM16MinimalPublisherFvvEPS5_EEEENS_9WallTimerIT1_XLDn0EEE9SharedPtrENSt6chrono8durationIT_T0_EESC_St10shared_ptrINS_13CallbackGroupEE
FNDA:1,_ZN6rclcpp4Node16create_publisherIN8std_msgs3msg7String_ISaIvEEES5_NS_9PublisherIS6_S5_EEEESt10shared_ptrIT1_ERKNSt7__cxx1112basic_stringIcSt11char_traitsIcESaIcEEERKNS_3QoSERKNS_29PublisherOptionsWithAllocatorIT0_EE
FNDA:1,_ZN6rclcpp4Node17create_wall_timerIlSt5ratioILl1ELl1000EESt5_BindIFM16MinimalPublisherFvvEPS5_EEEENS_9WallTimerIT1_XLDn0EEE9SharedPtrENSt6chrono8durationIT_T0_EESC_St10shared_ptrINS_13CallbackGroupEE
FNDA:2,_ZN6rclcpp30extend_name_with_sub_namespaceERKNSt7__cxx1112basic_stringIcSt11char_traitsIcESaIcEEES7_
FNDA:1,_ZN6rclcpp4Node19create_subscriptionIN8std_msgs3msg7String_ISaIvEEESt5_BindIFM17MinimalSubscriberKFvSt10shared_ptrIS6_EEPS8_St12_PlaceholderILi1EEEES5_S6_NS_12SubscriptionIS6_S5_NS_23message_memory_strategy21MessageMemoryStrategyIS6_S5_EEEESL_EES9_IT3_ERKNSt7__cxx1112basic_stringIcSt11char_traitsIcESaIcEEERKNS_3QoSEOT0_RKNS_32SubscriptionOptionsWithAllocatorIT1_EENT4_9SharedPtrE
FNF:4
FNH:4
DA:60,2
DA:62,2
DA:63,2
DA:64,0
DA:66,2
DA:71,1
DA:80,1
DA:91,1
DA:104,1
DA:109,1
DA:116,1
DA:119,2
LF:12
LH:11
end_of_record
TN:
SF:/opt/ros/foxy/include/rclcpp/node_interfaces/get_node_topics_interface.hpp
FN:53,_ZN6rclcpp15node_interfaces6detail38get_node_topics_interface_from_pointerIPNS_4NodeELi0EEESt10shared_ptrINS0_19NodeTopicsInterfaceEET_
FN:87,_ZN6rclcpp15node_interfaces25get_node_topics_interfaceIRNS_4NodeELi0EEESt10shared_ptrINS0_19NodeTopicsInterfaceEEOT_
FNDA:2,_ZN6rclcpp15node_interfaces25get_node_topics_interfaceIRNS_4NodeELi0EEESt10shared_ptrINS0_19NodeTopicsInterfaceEEOT_
FNDA:2,_ZN6rclcpp15node_interfaces6detail38get_node_topics_interface_from_pointerIPNS_4NodeELi0EEESt10shared_ptrINS0_19NodeTopicsInterfaceEET_
FNF:2
FNH:2
DA:53,2
DA:55,2
DA:56,0
DA:58,2
DA:87,2
DA:90,2
LF:6
LH:5
end_of_record
TN:
SF:/opt/ros/foxy/include/rclcpp/node_options.hpp
FN:64,_ZN6rclcpp11NodeOptionsD2Ev
FN:64,_ZN6rclcpp11NodeOptionsD0Ev
FNDA:2,_ZN6rclcpp11NodeOptionsD2Ev
FNDA:0,_ZN6rclcpp11NodeOptionsD0Ev
FNF:2
FNH:1
DA:64,2
LF:1
LH:1
end_of_record
TN:
SF:/opt/ros/foxy/include/rclcpp/publisher.hpp
FN:73,_ZN6rclcpp9PublisherIN8std_msgs3msg7String_ISaIvEEES4_EC2EPNS_15node_interfaces17NodeBaseInterfaceERKNSt7__cxx1112basic_stringIcSt11char_traitsIcESaIcEEERKNS_3QoSERKNS_29PublisherOptionsWithAllocatorIS4_EE
FN:73,_ZN6rclcpp9PublisherIN15statistics_msgs3msg15MetricsMessage_ISaIvEEES4_EC2EPNS_15node_interfaces17NodeBaseInterfaceERKNSt7__cxx1112basic_stringIcSt11char_traitsIcESaIcEEERKNS_3QoSERKNS_29PublisherOptionsWithAllocatorIS4_EE
FN:106,_ZZN6rclcpp9PublisherIN15statistics_msgs3msg15MetricsMessage_ISaIvEEES4_EC4EPNS_15node_interfaces17NodeBaseInterfaceERKNSt7__cxx1112basic_stringIcSt11char_traitsIcESaIcEEERKNS_3QoSERKNS_29PublisherOptionsWithAllocatorIS4_EEENKUlR35rmw_qos_incompatible_event_status_tE_clESQ_
FN:106,_ZZN6rclcpp9PublisherIN8std_msgs3msg7String_ISaIvEEES4_EC4EPNS_15node_interfaces17NodeBaseInterfaceERKNSt7__cxx1112basic_stringIcSt11char_traitsIcESaIcEEERKNS_3QoSERKNS_29PublisherOptionsWithAllocatorIS4_EEENKUlR35rmw_qos_incompatible_event_status_tE_clESQ_
FN:120,_ZN6rclcpp9PublisherIN15statistics_msgs3msg15MetricsMessage_ISaIvEEES4_E15post_init_setupEPNS_15node_interfaces17NodeBaseInterfaceERKNSt7__cxx1112basic_stringIcSt11char_traitsIcESaIcEEERKNS_3QoSERKNS_29PublisherOptionsWithAllocatorIS4_EE
FN:120,_ZN6rclcpp9PublisherIN8std_msgs3msg7String_ISaIvEEES4_E15post_init_setupEPNS_15node_interfaces17NodeBaseInterfaceERKNSt7__cxx1112basic_stringIcSt11char_traitsIcESaIcEEERKNS_3QoSERKNS_29PublisherOptionsWithAllocatorIS4_EE
FN:155,_ZN6rclcpp9PublisherIN8std_msgs3msg7String_ISaIvEEES4_ED2Ev
FN:155,_ZN6rclcpp9PublisherIN15statistics_msgs3msg15MetricsMessage_ISaIvEEES4_ED2Ev
FN:155,_ZN6rclcpp9PublisherIN8std_msgs3msg7String_ISaIvEEES4_ED0Ev
FN:155,_ZN6rclcpp9PublisherIN15statistics_msgs3msg15MetricsMessage_ISaIvEEES4_ED0Ev
FN:185,_ZN6rclcpp9PublisherIN8std_msgs3msg7String_ISaIvEEES4_E7publishESt10unique_ptrIS5_St14default_deleteIS5_EE
FN:185,_ZN6rclcpp9PublisherIN15statistics_msgs3msg15MetricsMessage_ISaIvEEES4_E7publishESt10unique_ptrIS5_St14default_deleteIS5_EE
FN:209,_ZN6rclcpp9PublisherIN15statistics_msgs3msg15MetricsMessage_ISaIvEEES4_E7publishERKS5_
FN:209,_ZN6rclcpp9PublisherIN8std_msgs3msg7String_ISaIvEEES4_E7publishERKS5_
FN:280,_ZN6rclcpp9PublisherIN8std_msgs3msg7String_ISaIvEEES4_E24do_inter_process_publishERKS5_
FN:280,_ZN6rclcpp9PublisherIN15statistics_msgs3msg15MetricsMessage_ISaIvEEES4_E24do_inter_process_publishERKS5_
FN:333,_ZN6rclcpp9PublisherIN8std_msgs3msg7String_ISaIvEEES4_E24do_intra_process_publishESt10unique_ptrIS5_St14default_deleteIS5_EE
FN:333,_ZN6rclcpp9PublisherIN15statistics_msgs3msg15MetricsMessage_ISaIvEEES4_E24do_intra_process_publishESt10unique_ptrIS5_St14default_deleteIS5_EE
FN:351,_ZN6rclcpp9PublisherIN8std_msgs3msg7String_ISaIvEEES4_E42do_intra_process_publish_and_return_sharedESt10unique_ptrIS5_St14default_deleteIS5_EE
FN:351,_ZN6rclcpp9PublisherIN15statistics_msgs3msg15MetricsMessage_ISaIvEEES4_E42do_intra_process_publish_and_return_sharedESt10unique_ptrIS5_St14default_deleteIS5_EE
FNDA:1,_ZN6rclcpp9PublisherIN8std_msgs3msg7String_ISaIvEEES4_ED2Ev
FNDA:1,_ZN6rclcpp9PublisherIN8std_msgs3msg7String_ISaIvEEES4_EC2EPNS_15node_interfaces17NodeBaseInterfaceERKNSt7__cxx1112basic_stringIcSt11char_traitsIcESaIcEEERKNS_3QoSERKNS_29PublisherOptionsWithAllocatorIS4_EE
FNDA:0,_ZN6rclcpp9PublisherIN15statistics_msgs3msg15MetricsMessage_ISaIvEEES4_E42do_intra_process_publish_and_return_sharedESt10unique_ptrIS5_St14default_deleteIS5_EE
FNDA:0,_ZN6rclcpp9PublisherIN15statistics_msgs3msg15MetricsMessage_ISaIvEEES4_ED2Ev
FNDA:0,_ZN6rclcpp9PublisherIN15statistics_msgs3msg15MetricsMessage_ISaIvEEES4_E24do_inter_process_publishERKS5_
FNDA:0,_ZN6rclcpp9PublisherIN15statistics_msgs3msg15MetricsMessage_ISaIvEEES4_E15post_init_setupEPNS_15node_interfaces17NodeBaseInterfaceERKNSt7__cxx1112basic_stringIcSt11char_traitsIcESaIcEEERKNS_3QoSERKNS_29PublisherOptionsWithAllocatorIS4_EE
FNDA:0,_ZN6rclcpp9PublisherIN8std_msgs3msg7String_ISaIvEEES4_E24do_intra_process_publishESt10unique_ptrIS5_St14default_deleteIS5_EE
FNDA:0,_ZN6rclcpp9PublisherIN15statistics_msgs3msg15MetricsMessage_ISaIvEEES4_E7publishERKS5_
FNDA:15,_ZN6rclcpp9PublisherIN8std_msgs3msg7String_ISaIvEEES4_E24do_inter_process_publishERKS5_
FNDA:0,_ZN6rclcpp9PublisherIN8std_msgs3msg7String_ISaIvEEES4_E7publishESt10unique_ptrIS5_St14default_deleteIS5_EE
FNDA:0,_ZN6rclcpp9PublisherIN15statistics_msgs3msg15MetricsMessage_ISaIvEEES4_E7publishESt10unique_ptrIS5_St14default_deleteIS5_EE
FNDA:0,_ZN6rclcpp9PublisherIN8std_msgs3msg7String_ISaIvEEES4_E42do_intra_process_publish_and_return_sharedESt10unique_ptrIS5_St14default_deleteIS5_EE
FNDA:0,_ZN6rclcpp9PublisherIN8std_msgs3msg7String_ISaIvEEES4_ED0Ev
FNDA:0,_ZN6rclcpp9PublisherIN15statistics_msgs3msg15MetricsMessage_ISaIvEEES4_EC2EPNS_15node_interfaces17NodeBaseInterfaceERKNSt7__cxx1112basic_stringIcSt11char_traitsIcESaIcEEERKNS_3QoSERKNS_29PublisherOptionsWithAllocatorIS4_EE
FNDA:0,_ZN6rclcpp9PublisherIN15statistics_msgs3msg15MetricsMessage_ISaIvEEES4_E24do_intra_process_publishESt10unique_ptrIS5_St14default_deleteIS5_EE
FNDA:0,_ZN6rclcpp9PublisherIN15statistics_msgs3msg15MetricsMessage_ISaIvEEES4_ED0Ev
FNDA:1,_ZN6rclcpp9PublisherIN8std_msgs3msg7String_ISaIvEEES4_E15post_init_setupEPNS_15node_interfaces17NodeBaseInterfaceERKNSt7__cxx1112basic_stringIcSt11char_traitsIcESaIcEEERKNS_3QoSERKNS_29PublisherOptionsWithAllocatorIS4_EE
FNDA:15,_ZN6rclcpp9PublisherIN8std_msgs3msg7String_ISaIvEEES4_E7publishERKS5_
FNDA:0,_ZZN6rclcpp9PublisherIN15statistics_msgs3msg15MetricsMessage_ISaIvEEES4_EC4EPNS_15node_interfaces17NodeBaseInterfaceERKNSt7__cxx1112basic_stringIcSt11char_traitsIcESaIcEEERKNS_3QoSERKNS_29PublisherOptionsWithAllocatorIS4_EEENKUlR35rmw_qos_incompatible_event_status_tE_clESQ_
FNDA:0,_ZZN6rclcpp9PublisherIN8std_msgs3msg7String_ISaIvEEES4_EC4EPNS_15node_interfaces17NodeBaseInterfaceERKNSt7__cxx1112basic_stringIcSt11char_traitsIcESaIcEEERKNS_3QoSERKNS_29PublisherOptionsWithAllocatorIS4_EEENKUlR35rmw_qos_incompatible_event_status_tE_clESQ_
FNF:20
FNH:5
DA:73,1
DA:81,1
DA:84,2
DA:86,1
DA:88,1
DA:89,0
DA:90,0
DA:93,1
DA:94,0
DA:95,0
DA:98,1
DA:99,0
DA:100,0
DA:102,1
DA:105,1
DA:106,0
DA:107,0
DA:110,1
DA:115,1
DA:120,1
DA:131,1
DA:132,0
DA:134,0
DA:136,0
DA:138,0
DA:140,0
DA:142,0
DA:144,0
DA:146,0
DA:148,0
DA:149,0
DA:153,1
DA:155,1
DA:156,1
DA:185,0
DA:187,0
DA:188,0
DA:189,0
DA:197,0
DA:198,0
DA:200,0
DA:201,0
DA:202,0
DA:204,0
DA:209,15
DA:212,15
DA:214,15
DA:219,0
DA:220,0
DA:221,0
DA:222,0
DA:280,15
DA:282,15
DA:284,15
DA:285,0
DA:286,0
DA:287,0
DA:288,0
DA:290,0
DA:294,15
DA:295,0
DA:333,0
DA:335,0
DA:336,0
DA:338,0
DA:340,0
DA:341,0
DA:344,0
DA:346,0
DA:347,0
DA:348,0
DA:351,0
DA:353,0
DA:354,0
DA:356,0
DA:358,0
DA:359,0
DA:364,0
DA:365,0
LF:79
LH:23
end_of_record
TN:
SF:/opt/ros/foxy/include/rclcpp/publisher_base.hpp
FN:199,_ZN6rclcpp13PublisherBase17add_event_handlerISt8functionIFvR36rmw_offered_deadline_missed_status_tEEEEvRKT_26rcl_publisher_event_type_t
FN:199,_ZN6rclcpp13PublisherBase17add_event_handlerIZNS_9PublisherIN15statistics_msgs3msg15MetricsMessage_ISaIvEEES6_EC4EPNS_15node_interfaces17NodeBaseInterfaceERKNSt7__cxx1112basic_stringIcSt11char_traitsIcESaIcEEERKNS_3QoSERKNS_29PublisherOptionsWithAllocatorIS6_EEEUlR35rmw_qos_incompatible_event_status_tE_EEvRKT_26rcl_publisher_event_type_t
FN:199,_ZN6rclcpp13PublisherBase17add_event_handlerISt8functionIFvR35rmw_qos_incompatible_event_status_tEEEEvRKT_26rcl_publisher_event_type_t
FN:199,_ZN6rclcpp13PublisherBase17add_event_handlerIZNS_9PublisherIN8std_msgs3msg7String_ISaIvEEES6_EC4EPNS_15node_interfaces17NodeBaseInterfaceERKNSt7__cxx1112basic_stringIcSt11char_traitsIcESaIcEEERKNS_3QoSERKNS_29PublisherOptionsWithAllocatorIS6_EEEUlR35rmw_qos_incompatible_event_status_tE_EEvRKT_26rcl_publisher_event_type_t
FN:199,_ZN6rclcpp13PublisherBase17add_event_handlerISt8functionIFvR28rmw_liveliness_lost_status_tEEEEvRKT_26rcl_publisher_event_type_t
FNDA:0,_ZN6rclcpp13PublisherBase17add_event_handlerISt8functionIFvR28rmw_liveliness_lost_status_tEEEEvRKT_26rcl_publisher_event_type_t
FNDA:1,_ZN6rclcpp13PublisherBase17add_event_handlerIZNS_9PublisherIN8std_msgs3msg7String_ISaIvEEES6_EC4EPNS_15node_interfaces17NodeBaseInterfaceERKNSt7__cxx1112basic_stringIcSt11char_traitsIcESaIcEEERKNS_3QoSERKNS_29PublisherOptionsWithAllocatorIS6_EEEUlR35rmw_qos_incompatible_event_status_tE_EEvRKT_26rcl_publisher_event_type_t
FNDA:0,_ZN6rclcpp13PublisherBase17add_event_handlerISt8functionIFvR36rmw_offered_deadline_missed_status_tEEEEvRKT_26rcl_publisher_event_type_t
FNDA:0,_ZN6rclcpp13PublisherBase17add_event_handlerIZNS_9PublisherIN15statistics_msgs3msg15MetricsMessage_ISaIvEEES6_EC4EPNS_15node_interfaces17NodeBaseInterfaceERKNSt7__cxx1112basic_stringIcSt11char_traitsIcESaIcEEERKNS_3QoSERKNS_29PublisherOptionsWithAllocatorIS6_EEEUlR35rmw_qos_incompatible_event_status_tE_EEvRKT_26rcl_publisher_event_type_t
FNDA:0,_ZN6rclcpp13PublisherBase17add_event_handlerISt8functionIFvR35rmw_qos_incompatible_event_status_tEEEEvRKT_26rcl_publisher_event_type_t
FNF:5
FNH:1
DA:199,1
DA:203,0
DA:207,1
DA:209,0
DA:210,0
LF:5
LH:2
end_of_record
TN:
SF:/opt/ros/foxy/include/rclcpp/publisher_factory.hpp
FN:66,_ZN6rclcpp24create_publisher_factoryIN8std_msgs3msg7String_ISaIvEEES4_NS_9PublisherIS5_S4_EEEENS_16PublisherFactoryERKNS_29PublisherOptionsWithAllocatorIT0_EE
FN:66,_ZN6rclcpp24create_publisher_factoryIN15statistics_msgs3msg15MetricsMessage_ISaIvEEES4_NS_9PublisherIS5_S4_EEEENS_16PublisherFactoryERKNS_29PublisherOptionsWithAllocatorIT0_EE
FN:70,_ZZN6rclcpp24create_publisher_factoryIN8std_msgs3msg7String_ISaIvEEES4_NS_9PublisherIS5_S4_EEEENS_16PublisherFactoryERKNS_29PublisherOptionsWithAllocatorIT0_EEENKUlPNS_15node_interfaces17NodeBaseInterfaceERKNSt7__cxx1112basic_stringIcSt11char_traitsIcESaIcEEERKNS_3QoSEE_clESG_SO_SR_
FN:70,_ZZN6rclcpp24create_publisher_factoryIN15statistics_msgs3msg15MetricsMessage_ISaIvEEES4_NS_9PublisherIS5_S4_EEEENS_16PublisherFactoryERKNS_29PublisherOptionsWithAllocatorIT0_EEENKUlPNS_15node_interfaces17NodeBaseInterfaceERKNSt7__cxx1112basic_stringIcSt11char_traitsIcESaIcEEERKNS_3QoSEE_clESG_SO_SR_
FNDA:0,_ZN6rclcpp24create_publisher_factoryIN15statistics_msgs3msg15MetricsMessage_ISaIvEEES4_NS_9PublisherIS5_S4_EEEENS_16PublisherFactoryERKNS_29PublisherOptionsWithAllocatorIT0_EE
FNDA:0,_ZZN6rclcpp24create_publisher_factoryIN15statistics_msgs3msg15MetricsMessage_ISaIvEEES4_NS_9PublisherIS5_S4_EEEENS_16PublisherFactoryERKNS_29PublisherOptionsWithAllocatorIT0_EEENKUlPNS_15node_interfaces17NodeBaseInterfaceERKNSt7__cxx1112basic_stringIcSt11char_traitsIcESaIcEEERKNS_3QoSEE_clESG_SO_SR_
FNDA:1,_ZN6rclcpp24create_publisher_factoryIN8std_msgs3msg7String_ISaIvEEES4_NS_9PublisherIS5_S4_EEEENS_16PublisherFactoryERKNS_29PublisherOptionsWithAllocatorIT0_EE
FNDA:1,_ZZN6rclcpp24create_publisher_factoryIN8std_msgs3msg7String_ISaIvEEES4_NS_9PublisherIS5_S4_EEEENS_16PublisherFactoryERKNS_29PublisherOptionsWithAllocatorIT0_EEENKUlPNS_15node_interfaces17NodeBaseInterfaceERKNSt7__cxx1112basic_stringIcSt11char_traitsIcESaIcEEERKNS_3QoSEE_clESG_SO_SR_
FNF:4
FNH:2
DA:66,1
DA:68,1
DA:70,1
DA:76,2
DA:80,1
DA:81,2
DA:86,1
LF:7
LH:7
end_of_record
TN:
SF:/opt/ros/foxy/include/rclcpp/publisher_options.hpp
FN:62,_ZN6rclcpp29PublisherOptionsWithAllocatorISaIvEEC2Ev
FN:72,_ZNK6rclcpp29PublisherOptionsWithAllocatorISaIvEE24to_rcl_publisher_optionsIN15statistics_msgs3msg15MetricsMessage_IS1_EEEE23rcl_publisher_options_tRKNS_3QoSE
FN:72,_ZNK6rclcpp29PublisherOptionsWithAllocatorISaIvEE24to_rcl_publisher_optionsIN8std_msgs3msg7String_IS1_EEEE23rcl_publisher_options_tRKNS_3QoSE
FN:89,_ZNK6rclcpp29PublisherOptionsWithAllocatorISaIvEE13get_allocatorEv
FN:102,_ZNK6rclcpp29PublisherOptionsWithAllocatorISaIvEE17get_rcl_allocatorEv
FNDA:2,_ZNK6rclcpp29PublisherOptionsWithAllocatorISaIvEE13get_allocatorEv
FNDA:0,_ZNK6rclcpp29PublisherOptionsWithAllocatorISaIvEE24to_rcl_publisher_optionsIN15statistics_msgs3msg15MetricsMessage_IS1_EEEE23rcl_publisher_options_tRKNS_3QoSE
FNDA:1,_ZNK6rclcpp29PublisherOptionsWithAllocatorISaIvEE24to_rcl_publisher_optionsIN8std_msgs3msg7String_IS1_EEEE23rcl_publisher_options_tRKNS_3QoSE
FNDA:1,_ZN6rclcpp29PublisherOptionsWithAllocatorISaIvEEC2Ev
FNDA:1,_ZNK6rclcpp29PublisherOptionsWithAllocatorISaIvEE17get_rcl_allocatorEv
FNF:5
FNH:4
DA:62,1
DA:72,1
DA:74,1
DA:75,1
DA:76,1
DA:79,1
DA:80,0
DA:83,1
DA:89,2
DA:91,2
DA:92,2
DA:94,0
DA:102,1
DA:104,1
DA:105,1
DA:106,2
DA:108,1
LF:17
LH:15
end_of_record
TN:
SF:/opt/ros/foxy/include/rclcpp/qos_event.hpp
FN:110,_ZN6rclcpp15QOSEventHandlerIZNS_9PublisherIN8std_msgs3msg7String_ISaIvEEES5_EC4EPNS_15node_interfaces17NodeBaseInterfaceERKNSt7__cxx1112basic_stringIcSt11char_traitsIcESaIcEEERKNS_3QoSERKNS_29PublisherOptionsWithAllocatorIS5_EEEUlR35rmw_qos_incompatible_event_status_tE_St10shared_ptrI15rcl_publisher_tEEC2IPFiP11rcl_event_tPKSU_26rcl_publisher_event_type_tES12_EERKSS_T_SV_T0_
FN:110,_ZN6rclcpp15QOSEventHandlerIZNS_9PublisherIN15statistics_msgs3msg15MetricsMessage_ISaIvEEES5_EC4EPNS_15node_interfaces17NodeBaseInterfaceERKNSt7__cxx1112basic_stringIcSt11char_traitsIcESaIcEEERKNS_3QoSERKNS_29PublisherOptionsWithAllocatorIS5_EEEUlR35rmw_qos_incompatible_event_status_tE_St10shared_ptrI15rcl_publisher_tEEC2IPFiP11rcl_event_tPKSU_26rcl_publisher_event_type_tES12_EERKSS_T_SV_T0_
FN:110,_ZN6rclcpp15QOSEventHandlerISt8functionIFvR35rmw_qos_incompatible_event_status_tEESt10shared_ptrI15rcl_publisher_tEEC2IPFiP11rcl_event_tPKS7_26rcl_publisher_event_type_tESF_EERKS5_T_S8_T0_
FN:110,_ZN6rclcpp15QOSEventHandlerISt8functionIFvR36rmw_offered_deadline_missed_status_tEESt10shared_ptrI15rcl_publisher_tEEC2IPFiP11rcl_event_tPKS7_26rcl_publisher_event_type_tESF_EERKS5_T_S8_T0_
FN:110,_ZN6rclcpp15QOSEventHandlerISt8functionIFvR35rmw_qos_incompatible_event_status_tEESt10shared_ptrI18rcl_subscription_tEEC2IPFiP11rcl_event_tPKS7_29rcl_subscription_event_type_tESF_EERKS5_T_S8_T0_
FN:110,_ZN6rclcpp15QOSEventHandlerISt8functionIFvR28rmw_liveliness_lost_status_tEESt10shared_ptrI15rcl_publisher_tEEC2IPFiP11rcl_event_tPKS7_26rcl_publisher_event_type_tESF_EERKS5_T_S8_T0_
FN:110,_ZN6rclcpp15QOSEventHandlerISt8functionIFvR38rmw_requested_deadline_missed_status_tEESt10shared_ptrI18rcl_subscription_tEEC2IPFiP11rcl_event_tPKS7_29rcl_subscription_event_type_tESF_EERKS5_T_S8_T0_
FN:110,_ZN6rclcpp15QOSEventHandlerIZNS_12SubscriptionIN8std_msgs3msg7String_ISaIvEEES5_NS_23message_memory_strategy21MessageMemoryStrategyIS6_S5_EEEC4EPNS_15node_interfaces17NodeBaseInterfaceERK29rosidl_message_type_support_tRKNSt7__cxx1112basic_stringIcSt11char_traitsIcESaIcEEERKNS_3QoSENS_23AnySubscriptionCallbackIS6_S5_EERKNS_32SubscriptionOptionsWithAllocatorIS5_EESt10shared_ptrIS9_ESY_INS_16topic_statistics27SubscriptionTopicStatisticsIS6_EEEEUlR35rmw_qos_incompatible_event_status_tE_SY_I18rcl_subscription_tEEC2IPFiP11rcl_event_tPKS17_29rcl_subscription_event_type_tES1F_EERKS16_T_S18_T0_
FN:110,_ZN6rclcpp15QOSEventHandlerISt8functionIFvR31rmw_liveliness_changed_status_tEESt10shared_ptrI18rcl_subscription_tEEC2IPFiP11rcl_event_tPKS7_29rcl_subscription_event_type_tESF_EERKS5_T_S8_T0_
FN:133,_ZN6rclcpp15QOSEventHandlerISt8functionIFvR35rmw_qos_incompatible_event_status_tEESt10shared_ptrI18rcl_subscription_tEE7executeEv
FN:133,_ZN6rclcpp15QOSEventHandlerISt8functionIFvR38rmw_requested_deadline_missed_status_tEESt10shared_ptrI18rcl_subscription_tEE7executeEv
FN:133,_ZN6rclcpp15QOSEventHandlerIZNS_9PublisherIN15statistics_msgs3msg15MetricsMessage_ISaIvEEES5_EC4EPNS_15node_interfaces17NodeBaseInterfaceERKNSt7__cxx1112basic_stringIcSt11char_traitsIcESaIcEEERKNS_3QoSERKNS_29PublisherOptionsWithAllocatorIS5_EEEUlR35rmw_qos_incompatible_event_status_tE_St10shared_ptrI15rcl_publisher_tEE7executeEv
FN:133,_ZN6rclcpp15QOSEventHandlerIZNS_12SubscriptionIN8std_msgs3msg7String_ISaIvEEES5_NS_23message_memory_strategy21MessageMemoryStrategyIS6_S5_EEEC4EPNS_15node_interfaces17NodeBaseInterfaceERK29rosidl_message_type_support_tRKNSt7__cxx1112basic_stringIcSt11char_traitsIcESaIcEEERKNS_3QoSENS_23AnySubscriptionCallbackIS6_S5_EERKNS_32SubscriptionOptionsWithAllocatorIS5_EESt10shared_ptrIS9_ESY_INS_16topic_statistics27SubscriptionTopicStatisticsIS6_EEEEUlR35rmw_qos_incompatible_event_status_tE_SY_I18rcl_subscription_tEE7executeEv
FN:133,_ZN6rclcpp15QOSEventHandlerIZNS_9PublisherIN8std_msgs3msg7String_ISaIvEEES5_EC4EPNS_15node_interfaces17NodeBaseInterfaceERKNSt7__cxx1112basic_stringIcSt11char_traitsIcESaIcEEERKNS_3QoSERKNS_29PublisherOptionsWithAllocatorIS5_EEEUlR35rmw_qos_incompatible_event_status_tE_St10shared_ptrI15rcl_publisher_tEE7executeEv
FN:133,_ZN6rclcpp15QOSEventHandlerISt8functionIFvR36rmw_offered_deadline_missed_status_tEESt10shared_ptrI15rcl_publisher_tEE7executeEv
FN:133,_ZN6rclcpp15QOSEventHandlerISt8functionIFvR28rmw_liveliness_lost_status_tEESt10shared_ptrI15rcl_publisher_tEE7executeEv
FN:133,_ZN6rclcpp15QOSEventHandlerISt8functionIFvR31rmw_liveliness_changed_status_tEESt10shared_ptrI18rcl_subscription_tEE7executeEv
FN:133,_ZN6rclcpp15QOSEventHandlerISt8functionIFvR35rmw_qos_incompatible_event_status_tEESt10shared_ptrI15rcl_publisher_tEE7executeEv
FNDA:0,_ZN6rclcpp15QOSEventHandlerISt8functionIFvR36rmw_offered_deadline_missed_status_tEESt10shared_ptrI15rcl_publisher_tEE7executeEv
FNDA:0,_ZN6rclcpp15QOSEventHandlerISt8functionIFvR28rmw_liveliness_lost_status_tEESt10shared_ptrI15rcl_publisher_tEE7executeEv
FNDA:0,_ZN6rclcpp15QOSEventHandlerISt8functionIFvR31rmw_liveliness_changed_status_tEESt10shared_ptrI18rcl_subscription_tEE7executeEv
FNDA:1,_ZN6rclcpp15QOSEventHandlerIZNS_12SubscriptionIN8std_msgs3msg7String_ISaIvEEES5_NS_23message_memory_strategy21MessageMemoryStrategyIS6_S5_EEEC4EPNS_15node_interfaces17NodeBaseInterfaceERK29rosidl_message_type_support_tRKNSt7__cxx1112basic_stringIcSt11char_traitsIcESaIcEEERKNS_3QoSENS_23AnySubscriptionCallbackIS6_S5_EERKNS_32SubscriptionOptionsWithAllocatorIS5_EESt10shared_ptrIS9_ESY_INS_16topic_statistics27SubscriptionTopicStatisticsIS6_EEEEUlR35rmw_qos_incompatible_event_status_tE_SY_I18rcl_subscription_tEEC2IPFiP11rcl_event_tPKS17_29rcl_subscription_event_type_tES1F_EERKS16_T_S18_T0_
FNDA:0,_ZN6rclcpp15QOSEventHandlerISt8functionIFvR35rmw_qos_incompatible_event_status_tEESt10shared_ptrI15rcl_publisher_tEE7executeEv
FNDA:0,_ZN6rclcpp15QOSEventHandlerISt8functionIFvR31rmw_liveliness_changed_status_tEESt10shared_ptrI18rcl_subscription_tEEC2IPFiP11rcl_event_tPKS7_29rcl_subscription_event_type_tESF_EERKS5_T_S8_T0_
FNDA:0,_ZN6rclcpp15QOSEventHandlerIZNS_12SubscriptionIN8std_msgs3msg7String_ISaIvEEES5_NS_23message_memory_strategy21MessageMemoryStrategyIS6_S5_EEEC4EPNS_15node_interfaces17NodeBaseInterfaceERK29rosidl_message_type_support_tRKNSt7__cxx1112basic_stringIcSt11char_traitsIcESaIcEEERKNS_3QoSENS_23AnySubscriptionCallbackIS6_S5_EERKNS_32SubscriptionOptionsWithAllocatorIS5_EESt10shared_ptrIS9_ESY_INS_16topic_statistics27SubscriptionTopicStatisticsIS6_EEEEUlR35rmw_qos_incompatible_event_status_tE_SY_I18rcl_subscription_tEE7executeEv
FNDA:0,_ZN6rclcpp15QOSEventHandlerISt8functionIFvR28rmw_liveliness_lost_status_tEESt10shared_ptrI15rcl_publisher_tEEC2IPFiP11rcl_event_tPKS7_26rcl_publisher_event_type_tESF_EERKS5_T_S8_T0_
FNDA:0,_ZN6rclcpp15QOSEventHandlerIZNS_9PublisherIN8std_msgs3msg7String_ISaIvEEES5_EC4EPNS_15node_interfaces17NodeBaseInterfaceERKNSt7__cxx1112basic_stringIcSt11char_traitsIcESaIcEEERKNS_3QoSERKNS_29PublisherOptionsWithAllocatorIS5_EEEUlR35rmw_qos_incompatible_event_status_tE_St10shared_ptrI15rcl_publisher_tEE7executeEv
FNDA:0,_ZN6rclcpp15QOSEventHandlerISt8functionIFvR38rmw_requested_deadline_missed_status_tEESt10shared_ptrI18rcl_subscription_tEEC2IPFiP11rcl_event_tPKS7_29rcl_subscription_event_type_tESF_EERKS5_T_S8_T0_
FNDA:0,_ZN6rclcpp15QOSEventHandlerISt8functionIFvR36rmw_offered_deadline_missed_status_tEESt10shared_ptrI15rcl_publisher_tEEC2IPFiP11rcl_event_tPKS7_26rcl_publisher_event_type_tESF_EERKS5_T_S8_T0_
FNDA:0,_ZN6rclcpp15QOSEventHandlerISt8functionIFvR35rmw_qos_incompatible_event_status_tEESt10shared_ptrI15rcl_publisher_tEEC2IPFiP11rcl_event_tPKS7_26rcl_publisher_event_type_tESF_EERKS5_T_S8_T0_
FNDA:0,_ZN6rclcpp15QOSEventHandlerISt8functionIFvR35rmw_qos_incompatible_event_status_tEESt10shared_ptrI18rcl_subscription_tEE7executeEv
FNDA:0,_ZN6rclcpp15QOSEventHandlerISt8functionIFvR35rmw_qos_incompatible_event_status_tEESt10shared_ptrI18rcl_subscription_tEEC2IPFiP11rcl_event_tPKS7_29rcl_subscription_event_type_tESF_EERKS5_T_S8_T0_
FNDA:0,_ZN6rclcpp15QOSEventHandlerIZNS_9PublisherIN15statistics_msgs3msg15MetricsMessage_ISaIvEEES5_EC4EPNS_15node_interfaces17NodeBaseInterfaceERKNSt7__cxx1112basic_stringIcSt11char_traitsIcESaIcEEERKNS_3QoSERKNS_29PublisherOptionsWithAllocatorIS5_EEEUlR35rmw_qos_incompatible_event_status_tE_St10shared_ptrI15rcl_publisher_tEE7executeEv
FNDA:0,_ZN6rclcpp15QOSEventHandlerISt8functionIFvR38rmw_requested_deadline_missed_status_tEESt10shared_ptrI18rcl_subscription_tEE7executeEv
FNDA:1,_ZN6rclcpp15QOSEventHandlerIZNS_9PublisherIN8std_msgs3msg7String_ISaIvEEES5_EC4EPNS_15node_interfaces17NodeBaseInterfaceERKNSt7__cxx1112basic_stringIcSt11char_traitsIcESaIcEEERKNS_3QoSERKNS_29PublisherOptionsWithAllocatorIS5_EEEUlR35rmw_qos_incompatible_event_status_tE_St10shared_ptrI15rcl_publisher_tEEC2IPFiP11rcl_event_tPKSU_26rcl_publisher_event_type_tES12_EERKSS_T_SV_T0_
FNDA:0,_ZN6rclcpp15QOSEventHandlerIZNS_9PublisherIN15statistics_msgs3msg15MetricsMessage_ISaIvEEES5_EC4EPNS_15node_interfaces17NodeBaseInterfaceERKNSt7__cxx1112basic_stringIcSt11char_traitsIcESaIcEEERKNS_3QoSERKNS_29PublisherOptionsWithAllocatorIS5_EEEUlR35rmw_qos_incompatible_event_status_tE_St10shared_ptrI15rcl_publisher_tEEC2IPFiP11rcl_event_tPKSU_26rcl_publisher_event_type_tES12_EERKSS_T_SV_T0_
FNF:18
FNH:2
DA:110,2
DA:115,6
DA:117,2
DA:118,2
DA:119,2
DA:120,2
DA:121,2
DA:122,6
DA:123,2
DA:124,2
DA:126,0
DA:129,0
DA:133,0
DA:137,0
DA:138,0
DA:139,0
DA:142,0
DA:145,0
LF:18
LH:10
end_of_record
TN:
SF:/opt/ros/foxy/include/rclcpp/serialized_message.hpp
FNF:0
FNH:0
DA:52,0
LF:1
LH:0
end_of_record
TN:
SF:/opt/ros/foxy/include/rclcpp/subscription.hpp
FN:82,_ZN6rclcpp12SubscriptionIN8std_msgs3msg7String_ISaIvEEES4_NS_23message_memory_strategy21MessageMemoryStrategyIS5_S4_EEE11make_sharedIJRPNS_15node_interfaces17NodeBaseInterfaceERK29rosidl_message_type_support_tRKNSt7__cxx1112basic_stringIcSt11char_traitsIcESaIcEEERKNS_3QoSERKNS_23AnySubscriptionCallbackIS5_S4_EERKNS_32SubscriptionOptionsWithAllocatorIS4_EERKSt10shared_ptrIS8_ERKS11_INS_16topic_statistics27SubscriptionTopicStatisticsIS5_EEEEEES11_IS9_EDpOT_
FN:102,_ZN6rclcpp12SubscriptionIN8std_msgs3msg7String_ISaIvEEES4_NS_23message_memory_strategy21MessageMemoryStrategyIS5_S4_EEEC2EPNS_15node_interfaces17NodeBaseInterfaceERK29rosidl_message_type_support_tRKNSt7__cxx1112basic_stringIcSt11char_traitsIcESaIcEEERKNS_3QoSENS_23AnySubscriptionCallbackIS5_S4_EERKNS_32SubscriptionOptionsWithAllocatorIS4_EESt10shared_ptrIS8_ESX_INS_16topic_statistics27SubscriptionTopicStatisticsIS5_EEE
FN:139,_ZZN6rclcpp12SubscriptionIN8std_msgs3msg7String_ISaIvEEES4_NS_23message_memory_strategy21MessageMemoryStrategyIS5_S4_EEEC4EPNS_15node_interfaces17NodeBaseInterfaceERK29rosidl_message_type_support_tRKNSt7__cxx1112basic_stringIcSt11char_traitsIcESaIcEEERKNS_3QoSENS_23AnySubscriptionCallbackIS5_S4_EERKNS_32SubscriptionOptionsWithAllocatorIS4_EESt10shared_ptrIS8_ESX_INS_16topic_statistics27SubscriptionTopicStatisticsIS5_EEEENKUlR35rmw_qos_incompatible_event_status_tE_clES14_
FN:214,_ZN6rclcpp12SubscriptionIN8std_msgs3msg7String_ISaIvEEES4_NS_23message_memory_strategy21MessageMemoryStrategyIS5_S4_EEE15post_init_setupEPNS_15node_interfaces17NodeBaseInterfaceERKNS_3QoSERKNS_32SubscriptionOptionsWithAllocatorIS4_EE
FN:249,_ZN6rclcpp12SubscriptionIN8std_msgs3msg7String_ISaIvEEES4_NS_23message_memory_strategy21MessageMemoryStrategyIS5_S4_EEE14create_messageEv
FN:259,_ZN6rclcpp12SubscriptionIN8std_msgs3msg7String_ISaIvEEES4_NS_23message_memory_strategy21MessageMemoryStrategyIS5_S4_EEE25create_serialized_messageEv
FN:265,_ZN6rclcpp12SubscriptionIN8std_msgs3msg7String_ISaIvEEES4_NS_23message_memory_strategy21MessageMemoryStrategyIS5_S4_EEE14handle_messageERSt10shared_ptrIvERKNS_11MessageInfoE
FN:286,_ZN6rclcpp12SubscriptionIN8std_msgs3msg7String_ISaIvEEES4_NS_23message_memory_strategy21MessageMemoryStrategyIS5_S4_EEE21handle_loaned_messageEPvRKNS_11MessageInfoE
FN:299,_ZZN6rclcpp12SubscriptionIN8std_msgs3msg7String_ISaIvEEES4_NS_23message_memory_strategy21MessageMemoryStrategyIS5_S4_EEE21handle_loaned_messageEPvRKNS_11MessageInfoEENKUlPS5_E_clESE_
FN:322,_ZN6rclcpp12SubscriptionIN8std_msgs3msg7String_ISaIvEEES4_NS_23message_memory_strategy21MessageMemoryStrategyIS5_S4_EEE14return_messageERSt10shared_ptrIvE
FN:333,_ZN6rclcpp12SubscriptionIN8std_msgs3msg7String_ISaIvEEES4_NS_23message_memory_strategy21MessageMemoryStrategyIS5_S4_EEE25return_serialized_messageERSt10shared_ptrINS_17SerializedMessageEE
FNDA:0,_ZN6rclcpp12SubscriptionIN8std_msgs3msg7String_ISaIvEEES4_NS_23message_memory_strategy21MessageMemoryStrategyIS5_S4_EEE25create_serialized_messageEv
FNDA:0,_ZN6rclcpp12SubscriptionIN8std_msgs3msg7String_ISaIvEEES4_NS_23message_memory_strategy21MessageMemoryStrategyIS5_S4_EEE21handle_loaned_messageEPvRKNS_11MessageInfoE
FNDA:1,_ZN6rclcpp12SubscriptionIN8std_msgs3msg7String_ISaIvEEES4_NS_23message_memory_strategy21MessageMemoryStrategyIS5_S4_EEE11make_sharedIJRPNS_15node_interfaces17NodeBaseInterfaceERK29rosidl_message_type_support_tRKNSt7__cxx1112basic_stringIcSt11char_traitsIcESaIcEEERKNS_3QoSERKNS_23AnySubscriptionCallbackIS5_S4_EERKNS_32SubscriptionOptionsWithAllocatorIS4_EERKSt10shared_ptrIS8_ERKS11_INS_16topic_statistics27SubscriptionTopicStatisticsIS5_EEEEEES11_IS9_EDpOT_
FNDA:9,_ZN6rclcpp12SubscriptionIN8std_msgs3msg7String_ISaIvEEES4_NS_23message_memory_strategy21MessageMemoryStrategyIS5_S4_EEE14handle_messageERSt10shared_ptrIvERKNS_11MessageInfoE
FNDA:1,_ZN6rclcpp12SubscriptionIN8std_msgs3msg7String_ISaIvEEES4_NS_23message_memory_strategy21MessageMemoryStrategyIS5_S4_EEEC2EPNS_15node_interfaces17NodeBaseInterfaceERK29rosidl_message_type_support_tRKNSt7__cxx1112basic_stringIcSt11char_traitsIcESaIcEEERKNS_3QoSENS_23AnySubscriptionCallbackIS5_S4_EERKNS_32SubscriptionOptionsWithAllocatorIS4_EESt10shared_ptrIS8_ESX_INS_16topic_statistics27SubscriptionTopicStatisticsIS5_EEE
FNDA:0,_ZZN6rclcpp12SubscriptionIN8std_msgs3msg7String_ISaIvEEES4_NS_23message_memory_strategy21MessageMemoryStrategyIS5_S4_EEEC4EPNS_15node_interfaces17NodeBaseInterfaceERK29rosidl_message_type_support_tRKNSt7__cxx1112basic_stringIcSt11char_traitsIcESaIcEEERKNS_3QoSENS_23AnySubscriptionCallbackIS5_S4_EERKNS_32SubscriptionOptionsWithAllocatorIS4_EESt10shared_ptrIS8_ESX_INS_16topic_statistics27SubscriptionTopicStatisticsIS5_EEEENKUlR35rmw_qos_incompatible_event_status_tE_clES14_
FNDA:9,_ZN6rclcpp12SubscriptionIN8std_msgs3msg7String_ISaIvEEES4_NS_23message_memory_strategy21MessageMemoryStrategyIS5_S4_EEE14return_messageERSt10shared_ptrIvE
FNDA:0,_ZN6rclcpp12SubscriptionIN8std_msgs3msg7String_ISaIvEEES4_NS_23message_memory_strategy21MessageMemoryStrategyIS5_S4_EEE25return_serialized_messageERSt10shared_ptrINS_17SerializedMessageEE
FNDA:9,_ZN6rclcpp12SubscriptionIN8std_msgs3msg7String_ISaIvEEES4_NS_23message_memory_strategy21MessageMemoryStrategyIS5_S4_EEE14create_messageEv
FNDA:0,_ZZN6rclcpp12SubscriptionIN8std_msgs3msg7String_ISaIvEEES4_NS_23message_memory_strategy21MessageMemoryStrategyIS5_S4_EEE21handle_loaned_messageEPvRKNS_11MessageInfoEENKUlPS5_E_clESE_
FNDA:1,_ZN6rclcpp12SubscriptionIN8std_msgs3msg7String_ISaIvEEES4_NS_23message_memory_strategy21MessageMemoryStrategyIS5_S4_EEE15post_init_setupEPNS_15node_interfaces17NodeBaseInterfaceERKNS_3QoSERKNS_32SubscriptionOptionsWithAllocatorIS4_EE
FNF:11
FNH:6
DA:82,1
DA:102,1
DA:119,1
DA:121,1
DA:122,0
DA:123,0
DA:126,1
DA:127,0
DA:128,0
DA:131,1
DA:132,0
DA:133,0
DA:135,1
DA:138,1
DA:139,0
DA:140,0
DA:143,1
DA:149,1
DA:153,0
DA:154,0
DA:156,0
DA:158,0
DA:160,0
DA:162,0
DA:164,0
DA:168,0
DA:173,0
DA:177,0
DA:179,0
DA:180,0
DA:187,0
DA:188,0
DA:189,0
DA:192,1
DA:193,0
DA:196,1
DA:200,1
DA:208,1
DA:210,1
DA:214,1
DA:222,1
DA:249,9
DA:255,9
DA:259,0
DA:261,0
DA:265,9
DA:269,9
DA:272,0
DA:274,18
DA:275,9
DA:277,9
DA:278,0
DA:279,0
DA:280,0
DA:281,0
DA:286,0
DA:290,0
DA:293,0
DA:296,0
DA:298,0
DA:299,0
DA:301,0
DA:302,0
DA:305,0
DA:308,0
DA:310,0
DA:311,0
DA:312,0
DA:313,0
DA:322,9
DA:324,18
DA:325,9
DA:326,9
DA:333,0
DA:335,0
DA:336,0
LF:76
LH:28
end_of_record
TN:
SF:/opt/ros/foxy/include/rclcpp/subscription_base.hpp
FN:269,_ZN6rclcpp16SubscriptionBase17add_event_handlerISt8functionIFvR38rmw_requested_deadline_missed_status_tEEEEvRKT_29rcl_subscription_event_type_t
FN:269,_ZN6rclcpp16SubscriptionBase17add_event_handlerIZNS_12SubscriptionIN8std_msgs3msg7String_ISaIvEEES6_NS_23message_memory_strategy21MessageMemoryStrategyIS7_S6_EEEC4EPNS_15node_interfaces17NodeBaseInterfaceERK29rosidl_message_type_support_tRKNSt7__cxx1112basic_stringIcSt11char_traitsIcESaIcEEERKNS_3QoSENS_23AnySubscriptionCallbackIS7_S6_EERKNS_32SubscriptionOptionsWithAllocatorIS6_EESt10shared_ptrISA_ESZ_INS_16topic_statistics27SubscriptionTopicStatisticsIS7_EEEEUlR35rmw_qos_incompatible_event_status_tE_EEvRKT_29rcl_subscription_event_type_t
FN:269,_ZN6rclcpp16SubscriptionBase17add_event_handlerISt8functionIFvR35rmw_qos_incompatible_event_status_tEEEEvRKT_29rcl_subscription_event_type_t
FN:269,_ZN6rclcpp16SubscriptionBase17add_event_handlerISt8functionIFvR31rmw_liveliness_changed_status_tEEEEvRKT_29rcl_subscription_event_type_t
FNDA:1,_ZN6rclcpp16SubscriptionBase17add_event_handlerIZNS_12SubscriptionIN8std_msgs3msg7String_ISaIvEEES6_NS_23message_memory_strategy21MessageMemoryStrategyIS7_S6_EEEC4EPNS_15node_interfaces17NodeBaseInterfaceERK29rosidl_message_type_support_tRKNSt7__cxx1112basic_stringIcSt11char_traitsIcESaIcEEERKNS_3QoSENS_23AnySubscriptionCallbackIS7_S6_EERKNS_32SubscriptionOptionsWithAllocatorIS6_EESt10shared_ptrISA_ESZ_INS_16topic_statistics27SubscriptionTopicStatisticsIS7_EEEEUlR35rmw_qos_incompatible_event_status_tE_EEvRKT_29rcl_subscription_event_type_t
FNDA:0,_ZN6rclcpp16SubscriptionBase17add_event_handlerISt8functionIFvR35rmw_qos_incompatible_event_status_tEEEEvRKT_29rcl_subscription_event_type_t
FNDA:0,_ZN6rclcpp16SubscriptionBase17add_event_handlerISt8functionIFvR31rmw_liveliness_changed_status_tEEEEvRKT_29rcl_subscription_event_type_t
FNDA:0,_ZN6rclcpp16SubscriptionBase17add_event_handlerISt8functionIFvR38rmw_requested_deadline_missed_status_tEEEEvRKT_29rcl_subscription_event_type_t
FNF:4
FNH:1
DA:269,1
DA:273,2
DA:279,0
DA:280,0
DA:281,0
LF:5
LH:2
end_of_record
TN:
SF:/opt/ros/foxy/include/rclcpp/subscription_factory.hpp
FN:85,_ZN6rclcpp27create_subscription_factoryIN8std_msgs3msg7String_ISaIvEEESt5_BindIFM17MinimalSubscriberKFvSt10shared_ptrIS5_EEPS7_St12_PlaceholderILi1EEEES4_S5_NS_12SubscriptionIS5_S4_NS_23message_memory_strategy21MessageMemoryStrategyIS5_S4_EEEESK_EENS_19SubscriptionFactoryEOT0_RKNS_32SubscriptionOptionsWithAllocatorIT1_EENT4_9SharedPtrES8_INS_16topic_statistics27SubscriptionTopicStatisticsIT2_EEE
FN:101,_ZZN6rclcpp27create_subscription_factoryIN8std_msgs3msg7String_ISaIvEEESt5_BindIFM17MinimalSubscriberKFvSt10shared_ptrIS5_EEPS7_St12_PlaceholderILi1EEEES4_S5_NS_12SubscriptionIS5_S4_NS_23message_memory_strategy21MessageMemoryStrategyIS5_S4_EEEESK_EENS_19SubscriptionFactoryEOT0_RKNS_32SubscriptionOptionsWithAllocatorIT1_EENT4_9SharedPtrES8_INS_16topic_statistics27SubscriptionTopicStatisticsIT2_EEEENKUlPNS_15node_interfaces17NodeBaseInterfaceERKNSt7__cxx1112basic_stringIcSt11char_traitsIcESaIcEEERKNS_3QoSEE_clES13_S1B_S1E_
FNDA:1,_ZN6rclcpp27create_subscription_factoryIN8std_msgs3msg7String_ISaIvEEESt5_BindIFM17MinimalSubscriberKFvSt10shared_ptrIS5_EEPS7_St12_PlaceholderILi1EEEES4_S5_NS_12SubscriptionIS5_S4_NS_23message_memory_strategy21MessageMemoryStrategyIS5_S4_EEEESK_EENS_19SubscriptionFactoryEOT0_RKNS_32SubscriptionOptionsWithAllocatorIT1_EENT4_9SharedPtrES8_INS_16topic_statistics27SubscriptionTopicStatisticsIT2_EEE
FNDA:1,_ZZN6rclcpp27create_subscription_factoryIN8std_msgs3msg7String_ISaIvEEESt5_BindIFM17MinimalSubscriberKFvSt10shared_ptrIS5_EEPS7_St12_PlaceholderILi1EEEES4_S5_NS_12SubscriptionIS5_S4_NS_23message_memory_strategy21MessageMemoryStrategyIS5_S4_EEEESK_EENS_19SubscriptionFactoryEOT0_RKNS_32SubscriptionOptionsWithAllocatorIT1_EENT4_9SharedPtrES8_INS_16topic_statistics27SubscriptionTopicStatisticsIT2_EEEENKUlPNS_15node_interfaces17NodeBaseInterfaceERKNSt7__cxx1112basic_stringIcSt11char_traitsIcESaIcEEERKNS_3QoSEE_clES13_S1B_S1E_
FNF:2
FNH:2
DA:85,1
DA:93,2
DA:96,2
DA:97,1
DA:99,1
DA:101,1
DA:110,1
DA:112,1
DA:115,1
DA:116,1
DA:117,1
DA:118,1
DA:122,1
DA:123,2
DA:124,2
DA:129,2
LF:16
LH:16
end_of_record
TN:
SF:/opt/ros/foxy/include/rclcpp/subscription_options.hpp
FN:84,_ZN6rclcpp32SubscriptionOptionsWithAllocatorISaIvEEC2Ev
FN:99,_ZNK6rclcpp32SubscriptionOptionsWithAllocatorISaIvEE27to_rcl_subscription_optionsIN8std_msgs3msg7String_IS1_EEEE26rcl_subscription_options_tRKNS_3QoSE
FN:116,_ZNK6rclcpp32SubscriptionOptionsWithAllocatorISaIvEE13get_allocatorEv
FN:129,_ZNK6rclcpp32SubscriptionOptionsWithAllocatorISaIvEE17get_rcl_allocatorEv
FNDA:1,_ZN6rclcpp32SubscriptionOptionsWithAllocatorISaIvEEC2Ev
FNDA:1,_ZNK6rclcpp32SubscriptionOptionsWithAllocatorISaIvEE27to_rcl_subscription_optionsIN8std_msgs3msg7String_IS1_EEEE26rcl_subscription_options_tRKNS_3QoSE
FNDA:2,_ZNK6rclcpp32SubscriptionOptionsWithAllocatorISaIvEE13get_allocatorEv
FNDA:1,_ZNK6rclcpp32SubscriptionOptionsWithAllocatorISaIvEE17get_rcl_allocatorEv
FNF:4
FNH:4
DA:84,1
DA:99,1
DA:101,1
DA:102,1
DA:103,1
DA:104,1
DA:107,1
DA:108,0
DA:111,1
DA:116,2
DA:118,2
DA:119,2
DA:121,0
DA:129,1
DA:131,1
DA:132,1
DA:133,2
DA:135,1
LF:18
LH:16
end_of_record
TN:
SF:/opt/ros/foxy/include/rclcpp/timer.hpp
FN:171,_ZN6rclcpp12GenericTimerISt5_BindIFM16MinimalPublisherFvvEPS2_EELPv0EEC2ESt10shared_ptrINS_5ClockEENSt6chrono8durationIlSt5ratioILl1ELl1000000000EEEEOS7_SA_INS_7ContextEE
FN:171,_ZN6rclcpp12GenericTimerIZNS_19create_subscriptionIN8std_msgs3msg7String_ISaIvEEESt5_BindIFM17MinimalSubscriberKFvSt10shared_ptrIS6_EEPS8_St12_PlaceholderILi1EEEES5_S6_NS_12SubscriptionIS6_S5_NS_23message_memory_strategy21MessageMemoryStrategyIS6_S5_EEEESL_RNS_4NodeEEES9_IT3_EOT5_RKNSt7__cxx1112basic_stringIcSt11char_traitsIcESaIcEEERKNS_3QoSEOT0_RKNS_32SubscriptionOptionsWithAllocatorIT1_EENT4_9SharedPtrEEUlvE_LPv0EEC2ES9_INS_5ClockEENSt6chrono8durationIlSt5ratioILl1ELl1000000000EEEEOS1D_S9_INS_7ContextEE
FN:188,_ZN6rclcpp12GenericTimerISt5_BindIFM16MinimalPublisherFvvEPS2_EELPv0EED2Ev
FN:188,_ZN6rclcpp12GenericTimerIZNS_19create_subscriptionIN8std_msgs3msg7String_ISaIvEEESt5_BindIFM17MinimalSubscriberKFvSt10shared_ptrIS6_EEPS8_St12_PlaceholderILi1EEEES5_S6_NS_12SubscriptionIS6_S5_NS_23message_memory_strategy21MessageMemoryStrategyIS6_S5_EEEESL_RNS_4NodeEEES9_IT3_EOT5_RKNSt7__cxx1112basic_stringIcSt11char_traitsIcESaIcEEERKNS_3QoSEOT0_RKNS_32SubscriptionOptionsWithAllocatorIT1_EENT4_9SharedPtrEEUlvE_LPv0EED0Ev
FN:188,_ZN6rclcpp12GenericTimerISt5_BindIFM16MinimalPublisherFvvEPS2_EELPv0EED0Ev
FN:188,_ZN6rclcpp12GenericTimerIZNS_19create_subscriptionIN8std_msgs3msg7String_ISaIvEEESt5_BindIFM17MinimalSubscriberKFvSt10shared_ptrIS6_EEPS8_St12_PlaceholderILi1EEEES5_S6_NS_12SubscriptionIS6_S5_NS_23message_memory_strategy21MessageMemoryStrategyIS6_S5_EEEESL_RNS_4NodeEEES9_IT3_EOT5_RKNSt7__cxx1112basic_stringIcSt11char_traitsIcESaIcEEERKNS_3QoSEOT0_RKNS_32SubscriptionOptionsWithAllocatorIT1_EENT4_9SharedPtrEEUlvE_LPv0EED2Ev
FN:199,_ZN6rclcpp12GenericTimerIZNS_19create_subscriptionIN8std_msgs3msg7String_ISaIvEEESt5_BindIFM17MinimalSubscriberKFvSt10shared_ptrIS6_EEPS8_St12_PlaceholderILi1EEEES5_S6_NS_12SubscriptionIS6_S5_NS_23message_memory_strategy21MessageMemoryStrategyIS6_S5_EEEESL_RNS_4NodeEEES9_IT3_EOT5_RKNSt7__cxx1112basic_stringIcSt11char_traitsIcESaIcEEERKNS_3QoSEOT0_RKNS_32SubscriptionOptionsWithAllocatorIT1_EENT4_9SharedPtrEEUlvE_LPv0EE16execute_callbackEv
FN:199,_ZN6rclcpp12GenericTimerISt5_BindIFM16MinimalPublisherFvvEPS2_EELPv0EE16execute_callbackEv
FN:221,_ZN6rclcpp12GenericTimerIZNS_19create_subscriptionIN8std_msgs3msg7String_ISaIvEEESt5_BindIFM17MinimalSubscriberKFvSt10shared_ptrIS6_EEPS8_St12_PlaceholderILi1EEEES5_S6_NS_12SubscriptionIS6_S5_NS_23message_memory_strategy21MessageMemoryStrategyIS6_S5_EEEESL_RNS_4NodeEEES9_IT3_EOT5_RKNSt7__cxx1112basic_stringIcSt11char_traitsIcESaIcEEERKNS_3QoSEOT0_RKNS_32SubscriptionOptionsWithAllocatorIT1_EENT4_9SharedPtrEEUlvE_LPv0EE25execute_callback_delegateIS1D_LS1E_0EEEvv
FN:221,_ZN6rclcpp12GenericTimerISt5_BindIFM16MinimalPublisherFvvEPS2_EELPv0EE25execute_callback_delegateIS7_LS8_0EEEvv
FN:241,_ZN6rclcpp12GenericTimerISt5_BindIFM16MinimalPublisherFvvEPS2_EELPv0EE9is_steadyEv
FN:241,_ZN6rclcpp12GenericTimerIZNS_19create_subscriptionIN8std_msgs3msg7String_ISaIvEEESt5_BindIFM17MinimalSubscriberKFvSt10shared_ptrIS6_EEPS8_St12_PlaceholderILi1EEEES5_S6_NS_12SubscriptionIS6_S5_NS_23message_memory_strategy21MessageMemoryStrategyIS6_S5_EEEESL_RNS_4NodeEEES9_IT3_EOT5_RKNSt7__cxx1112basic_stringIcSt11char_traitsIcESaIcEEERKNS_3QoSEOT0_RKNS_32SubscriptionOptionsWithAllocatorIT1_EENT4_9SharedPtrEEUlvE_LPv0EE9is_steadyEv
FN:262,_ZN6rclcpp9WallTimerISt5_BindIFM16MinimalPublisherFvvEPS2_EELPv0EE11make_sharedIJRKNSt6chrono8durationIlSt5ratioILl1ELl1000000000EEEES7_St10shared_ptrINS_7ContextEEEEESI_IS9_EDpOT_
FN:262,_ZN6rclcpp9WallTimerIZNS_19create_subscriptionIN8std_msgs3msg7String_ISaIvEEESt5_BindIFM17MinimalSubscriberKFvSt10shared_ptrIS6_EEPS8_St12_PlaceholderILi1EEEES5_S6_NS_12SubscriptionIS6_S5_NS_23message_memory_strategy21MessageMemoryStrategyIS6_S5_EEEESL_RNS_4NodeEEES9_IT3_EOT5_RKNSt7__cxx1112basic_stringIcSt11char_traitsIcESaIcEEERKNS_3QoSEOT0_RKNS_32SubscriptionOptionsWithAllocatorIT1_EENT4_9SharedPtrEEUlvE_LPv0EE11make_sharedIJRKNSt6chrono8durationIlSt5ratioILl1ELl1000000000EEEES1D_S9_INS_7ContextEEEEES9_IS1F_EDpOT_
FN:270,_ZN6rclcpp9WallTimerISt5_BindIFM16MinimalPublisherFvvEPS2_EELPv0EEC2ENSt6chrono8durationIlSt5ratioILl1ELl1000000000EEEEOS7_St10shared_ptrINS_7ContextEE
FN:270,_ZN6rclcpp9WallTimerIZNS_19create_subscriptionIN8std_msgs3msg7String_ISaIvEEESt5_BindIFM17MinimalSubscriberKFvSt10shared_ptrIS6_EEPS8_St12_PlaceholderILi1EEEES5_S6_NS_12SubscriptionIS6_S5_NS_23message_memory_strategy21MessageMemoryStrategyIS6_S5_EEEESL_RNS_4NodeEEES9_IT3_EOT5_RKNSt7__cxx1112basic_stringIcSt11char_traitsIcESaIcEEERKNS_3QoSEOT0_RKNS_32SubscriptionOptionsWithAllocatorIT1_EENT4_9SharedPtrEEUlvE_LPv0EEC2ENSt6chrono8durationIlSt5ratioILl1ELl1000000000EEEEOS1D_S9_INS_7ContextEE
FNDA:0,_ZN6rclcpp12GenericTimerIZNS_19create_subscriptionIN8std_msgs3msg7String_ISaIvEEESt5_BindIFM17MinimalSubscriberKFvSt10shared_ptrIS6_EEPS8_St12_PlaceholderILi1EEEES5_S6_NS_12SubscriptionIS6_S5_NS_23message_memory_strategy21MessageMemoryStrategyIS6_S5_EEEESL_RNS_4NodeEEES9_IT3_EOT5_RKNSt7__cxx1112basic_stringIcSt11char_traitsIcESaIcEEERKNS_3QoSEOT0_RKNS_32SubscriptionOptionsWithAllocatorIT1_EENT4_9SharedPtrEEUlvE_LPv0EE16execute_callbackEv
FNDA:1,_ZN6rclcpp12GenericTimerISt5_BindIFM16MinimalPublisherFvvEPS2_EELPv0EEC2ESt10shared_ptrINS_5ClockEENSt6chrono8durationIlSt5ratioILl1ELl1000000000EEEEOS7_SA_INS_7ContextEE
FNDA:1,_ZN6rclcpp9WallTimerISt5_BindIFM16MinimalPublisherFvvEPS2_EELPv0EE11make_sharedIJRKNSt6chrono8durationIlSt5ratioILl1ELl1000000000EEEES7_St10shared_ptrINS_7ContextEEEEESI_IS9_EDpOT_
FNDA:0,_ZN6rclcpp12GenericTimerISt5_BindIFM16MinimalPublisherFvvEPS2_EELPv0EE9is_steadyEv
FNDA:0,_ZN6rclcpp12GenericTimerISt5_BindIFM16MinimalPublisherFvvEPS2_EELPv0EED0Ev
FNDA:1,_ZN6rclcpp9WallTimerISt5_BindIFM16MinimalPublisherFvvEPS2_EELPv0EEC2ENSt6chrono8durationIlSt5ratioILl1ELl1000000000EEEEOS7_St10shared_ptrINS_7ContextEE
FNDA:1,_ZN6rclcpp12GenericTimerISt5_BindIFM16MinimalPublisherFvvEPS2_EELPv0EED2Ev
FNDA:0,_ZN6rclcpp12GenericTimerIZNS_19create_subscriptionIN8std_msgs3msg7String_ISaIvEEESt5_BindIFM17MinimalSubscriberKFvSt10shared_ptrIS6_EEPS8_St12_PlaceholderILi1EEEES5_S6_NS_12SubscriptionIS6_S5_NS_23message_memory_strategy21MessageMemoryStrategyIS6_S5_EEEESL_RNS_4NodeEEES9_IT3_EOT5_RKNSt7__cxx1112basic_stringIcSt11char_traitsIcESaIcEEERKNS_3QoSEOT0_RKNS_32SubscriptionOptionsWithAllocatorIT1_EENT4_9SharedPtrEEUlvE_LPv0EED0Ev
FNDA:0,_ZN6rclcpp12GenericTimerIZNS_19create_subscriptionIN8std_msgs3msg7String_ISaIvEEESt5_BindIFM17MinimalSubscriberKFvSt10shared_ptrIS6_EEPS8_St12_PlaceholderILi1EEEES5_S6_NS_12SubscriptionIS6_S5_NS_23message_memory_strategy21MessageMemoryStrategyIS6_S5_EEEESL_RNS_4NodeEEES9_IT3_EOT5_RKNSt7__cxx1112basic_stringIcSt11char_traitsIcESaIcEEERKNS_3QoSEOT0_RKNS_32SubscriptionOptionsWithAllocatorIT1_EENT4_9SharedPtrEEUlvE_LPv0EEC2ES9_INS_5ClockEENSt6chrono8durationIlSt5ratioILl1ELl1000000000EEEEOS1D_S9_INS_7ContextEE
FNDA:0,_ZN6rclcpp12GenericTimerIZNS_19create_subscriptionIN8std_msgs3msg7String_ISaIvEEESt5_BindIFM17MinimalSubscriberKFvSt10shared_ptrIS6_EEPS8_St12_PlaceholderILi1EEEES5_S6_NS_12SubscriptionIS6_S5_NS_23message_memory_strategy21MessageMemoryStrategyIS6_S5_EEEESL_RNS_4NodeEEES9_IT3_EOT5_RKNSt7__cxx1112basic_stringIcSt11char_traitsIcESaIcEEERKNS_3QoSEOT0_RKNS_32SubscriptionOptionsWithAllocatorIT1_EENT4_9SharedPtrEEUlvE_LPv0EE25execute_callback_delegateIS1D_LS1E_0EEEvv
FNDA:15,_ZN6rclcpp12GenericTimerISt5_BindIFM16MinimalPublisherFvvEPS2_EELPv0EE25execute_callback_delegateIS7_LS8_0EEEvv
FNDA:0,_ZN6rclcpp12GenericTimerIZNS_19create_subscriptionIN8std_msgs3msg7String_ISaIvEEESt5_BindIFM17MinimalSubscriberKFvSt10shared_ptrIS6_EEPS8_St12_PlaceholderILi1EEEES5_S6_NS_12SubscriptionIS6_S5_NS_23message_memory_strategy21MessageMemoryStrategyIS6_S5_EEEESL_RNS_4NodeEEES9_IT3_EOT5_RKNSt7__cxx1112basic_stringIcSt11char_traitsIcESaIcEEERKNS_3QoSEOT0_RKNS_32SubscriptionOptionsWithAllocatorIT1_EENT4_9SharedPtrEEUlvE_LPv0EED2Ev
FNDA:0,_ZN6rclcpp9WallTimerIZNS_19create_subscriptionIN8std_msgs3msg7String_ISaIvEEESt5_BindIFM17MinimalSubscriberKFvSt10shared_ptrIS6_EEPS8_St12_PlaceholderILi1EEEES5_S6_NS_12SubscriptionIS6_S5_NS_23message_memory_strategy21MessageMemoryStrategyIS6_S5_EEEESL_RNS_4NodeEEES9_IT3_EOT5_RKNSt7__cxx1112basic_stringIcSt11char_traitsIcESaIcEEERKNS_3QoSEOT0_RKNS_32SubscriptionOptionsWithAllocatorIT1_EENT4_9SharedPtrEEUlvE_LPv0EE11make_sharedIJRKNSt6chrono8durationIlSt5ratioILl1ELl1000000000EEEES1D_S9_INS_7ContextEEEEES9_IS1F_EDpOT_
FNDA:0,_ZN6rclcpp9WallTimerIZNS_19create_subscriptionIN8std_msgs3msg7String_ISaIvEEESt5_BindIFM17MinimalSubscriberKFvSt10shared_ptrIS6_EEPS8_St12_PlaceholderILi1EEEES5_S6_NS_12SubscriptionIS6_S5_NS_23message_memory_strategy21MessageMemoryStrategyIS6_S5_EEEESL_RNS_4NodeEEES9_IT3_EOT5_RKNSt7__cxx1112basic_stringIcSt11char_traitsIcESaIcEEERKNS_3QoSEOT0_RKNS_32SubscriptionOptionsWithAllocatorIT1_EENT4_9SharedPtrEEUlvE_LPv0EEC2ENSt6chrono8durationIlSt5ratioILl1ELl1000000000EEEEOS1D_S9_INS_7ContextEE
FNDA:0,_ZN6rclcpp12GenericTimerIZNS_19create_subscriptionIN8std_msgs3msg7String_ISaIvEEESt5_BindIFM17MinimalSubscriberKFvSt10shared_ptrIS6_EEPS8_St12_PlaceholderILi1EEEES5_S6_NS_12SubscriptionIS6_S5_NS_23message_memory_strategy21MessageMemoryStrategyIS6_S5_EEEESL_RNS_4NodeEEES9_IT3_EOT5_RKNSt7__cxx1112basic_stringIcSt11char_traitsIcESaIcEEERKNS_3QoSEOT0_RKNS_32SubscriptionOptionsWithAllocatorIT1_EENT4_9SharedPtrEEUlvE_LPv0EE9is_steadyEv
FNDA:15,_ZN6rclcpp12GenericTimerISt5_BindIFM16MinimalPublisherFvvEPS2_EELPv0EE16execute_callbackEv
FNF:16
FNH:6
DA:171,1
DA:175,1
DA:177,1
DA:181,1
DA:185,1
DA:188,1
DA:191,1
DA:192,1
DA:199,15
DA:201,15
DA:202,15
DA:203,0
DA:205,15
DA:206,0
DA:208,15
DA:209,15
DA:210,15
DA:221,15
DA:223,15
DA:224,15
DA:241,0
DA:243,0
DA:262,1
DA:270,1
DA:275,1
DA:276,1
LF:26
LH:22
end_of_record
TN:
SF:/opt/ros/foxy/include/rclcpp/topic_statistics/subscription_topic_statistics.hpp
FN:80,_ZN6rclcpp16topic_statistics27SubscriptionTopicStatisticsIN8std_msgs3msg7String_ISaIvEEEEC2ERKNSt7__cxx1112basic_stringIcSt11char_traitsIcESaIcEEESt10shared_ptrINS_9PublisherIN15statistics_msgs3msg15MetricsMessage_IS5_EES5_EEE
FN:95,_ZN6rclcpp16topic_statistics27SubscriptionTopicStatisticsIN8std_msgs3msg7String_ISaIvEEEED2Ev
FN:95,_ZN6rclcpp16topic_statistics27SubscriptionTopicStatisticsIN8std_msgs3msg7String_ISaIvEEEED0Ev
FN:107,_ZNK6rclcpp16topic_statistics27SubscriptionTopicStatisticsIN8std_msgs3msg7String_ISaIvEEEE14handle_messageERKS6_NS_4TimeE
FN:121,_ZN6rclcpp16topic_statistics27SubscriptionTopicStatisticsIN8std_msgs3msg7String_ISaIvEEEE19set_publisher_timerESt10shared_ptrINS_9TimerBaseEE
FN:130,_ZN6rclcpp16topic_statistics27SubscriptionTopicStatisticsIN8std_msgs3msg7String_ISaIvEEEE15publish_messageEv
FN:179,_ZN6rclcpp16topic_statistics27SubscriptionTopicStatisticsIN8std_msgs3msg7String_ISaIvEEEE8bring_upEv
FN:199,_ZN6rclcpp16topic_statistics27SubscriptionTopicStatisticsIN8std_msgs3msg7String_ISaIvEEEE9tear_downEv
FN:222,_ZNK6rclcpp16topic_statistics27SubscriptionTopicStatisticsIN8std_msgs3msg7String_ISaIvEEEE35get_current_nanoseconds_since_epochEv
FNDA:0,_ZN6rclcpp16topic_statistics27SubscriptionTopicStatisticsIN8std_msgs3msg7String_ISaIvEEEEC2ERKNSt7__cxx1112basic_stringIcSt11char_traitsIcESaIcEEESt10shared_ptrINS_9PublisherIN15statistics_msgs3msg15MetricsMessage_IS5_EES5_EEE
FNDA:0,_ZN6rclcpp16topic_statistics27SubscriptionTopicStatisticsIN8std_msgs3msg7String_ISaIvEEEE15publish_messageEv
FNDA:0,_ZN6rclcpp16topic_statistics27SubscriptionTopicStatisticsIN8std_msgs3msg7String_ISaIvEEEED0Ev
FNDA:0,_ZN6rclcpp16topic_statistics27SubscriptionTopicStatisticsIN8std_msgs3msg7String_ISaIvEEEED2Ev
FNDA:0,_ZN6rclcpp16topic_statistics27SubscriptionTopicStatisticsIN8std_msgs3msg7String_ISaIvEEEE8bring_upEv
FNDA:0,_ZN6rclcpp16topic_statistics27SubscriptionTopicStatisticsIN8std_msgs3msg7String_ISaIvEEEE19set_publisher_timerESt10shared_ptrINS_9TimerBaseEE
FNDA:0,_ZN6rclcpp16topic_statistics27SubscriptionTopicStatisticsIN8std_msgs3msg7String_ISaIvEEEE9tear_downEv
FNDA:0,_ZNK6rclcpp16topic_statistics27SubscriptionTopicStatisticsIN8std_msgs3msg7String_ISaIvEEEE35get_current_nanoseconds_since_epochEv
FNDA:0,_ZNK6rclcpp16topic_statistics27SubscriptionTopicStatisticsIN8std_msgs3msg7String_ISaIvEEEE14handle_messageERKS6_NS_4TimeE
FNF:9
FNH:0
DA:80,0
DA:84,0
DA:88,0
DA:89,0
DA:92,0
DA:93,0
DA:95,0
DA:97,0
DA:98,0
DA:107,0
DA:111,0
DA:112,0
DA:113,0
DA:115,0
DA:121,0
DA:123,0
DA:124,0
DA:130,0
DA:132,0
DA:133,0
DA:136,0
DA:137,0
DA:138,0
DA:140,0
DA:141,0
DA:142,0
DA:143,0
DA:147,0
DA:151,0
DA:152,0
DA:154,0
DA:155,0
DA:179,0
DA:181,0
DA:182,0
DA:183,0
DA:185,0
DA:186,0
DA:188,0
DA:189,0
DA:192,0
DA:193,0
DA:199,0
DA:202,0
DA:203,0
DA:204,0
DA:207,0
DA:210,0
DA:211,0
DA:212,0
DA:215,0
DA:216,0
DA:222,0
DA:224,0
DA:225,0
LF:55
LH:0
end_of_record
TN:
SF:/opt/ros/foxy/include/rclcpp/waitable.hpp
FN:34,_ZN6rclcpp8WaitableD0Ev
FN:34,_ZN6rclcpp8WaitableD2Ev
FNDA:0,_ZN6rclcpp8WaitableD0Ev
FNDA:0,_ZN6rclcpp8WaitableD2Ev
FNF:2
FNH:0
DA:34,0
LF:1
LH:0
end_of_record
TN:
SF:/opt/ros/foxy/include/std_msgs/msg/detail/string__struct.hpp
FN:35,_ZN8std_msgs3msg7String_ISaIvEEC2EN18rosidl_runtime_cpp21MessageInitializationE
FNDA:24,_ZN8std_msgs3msg7String_ISaIvEEC2EN18rosidl_runtime_cpp21MessageInitializationE
FNF:1
FNH:1
DA:35,24
DA:36,24
DA:37,24
DA:40,24
DA:42,24
LF:5
LH:5
end_of_record
TN:
SF:/opt/ros/foxy/include/tracetools/utils.hpp
FN:39,_Z10get_symbolIvJSt10shared_ptrIN8std_msgs3msg7String_ISaIvEEEEEEPKcSt8functionIFT_DpT0_EE
FN:39,_Z10get_symbolIvJSt10unique_ptrIN8std_msgs3msg7String_ISaIvEEESt14default_deleteIS5_EERKN6rclcpp11MessageInfoEEEPKcSt8functionIFT_DpT0_EE
FN:39,_Z10get_symbolIvJSt10shared_ptrIN8std_msgs3msg7String_ISaIvEEEERKN6rclcpp11MessageInfoEEEPKcSt8functionIFT_DpT0_EE
FN:39,_Z10get_symbolIvJSt10shared_ptrIKN8std_msgs3msg7String_ISaIvEEEERKN6rclcpp11MessageInfoEEEPKcSt8functionIFT_DpT0_EE
FN:39,_Z10get_symbolIvJSt10unique_ptrIN8std_msgs3msg7String_ISaIvEEESt14default_deleteIS5_EEEEPKcSt8functionIFT_DpT0_EE
FN:39,_Z10get_symbolIvJSt10shared_ptrIKN8std_msgs3msg7String_ISaIvEEEEEEPKcSt8functionIFT_DpT0_EE
FN:60,_Z10get_symbolIRZN6rclcpp19create_subscriptionIN8std_msgs3msg7String_ISaIvEEESt5_BindIFM17MinimalSubscriberKFvSt10shared_ptrIS6_EEPS8_St12_PlaceholderILi1EEEES5_S6_NS0_12SubscriptionIS6_S5_NS0_23message_memory_strategy21MessageMemoryStrategyIS6_S5_EEEESL_RNS0_4NodeEEES9_IT3_EOT5_RKNSt7__cxx1112basic_stringIcSt11char_traitsIcESaIcEEERKNS0_3QoSEOT0_RKNS0_32SubscriptionOptionsWithAllocatorIT1_EENT4_9SharedPtrEEUlvE_EPKcOT_
FN:60,_Z10get_symbolIRSt5_BindIFM16MinimalPublisherFvvEPS1_EEEPKcOT_
FNDA:0,_Z10get_symbolIRZN6rclcpp19create_subscriptionIN8std_msgs3msg7String_ISaIvEEESt5_BindIFM17MinimalSubscriberKFvSt10shared_ptrIS6_EEPS8_St12_PlaceholderILi1EEEES5_S6_NS0_12SubscriptionIS6_S5_NS0_23message_memory_strategy21MessageMemoryStrategyIS6_S5_EEEESL_RNS0_4NodeEEES9_IT3_EOT5_RKNSt7__cxx1112basic_stringIcSt11char_traitsIcESaIcEEERKNS0_3QoSEOT0_RKNS0_32SubscriptionOptionsWithAllocatorIT1_EENT4_9SharedPtrEEUlvE_EPKcOT_
FNDA:0,_Z10get_symbolIvJSt10unique_ptrIN8std_msgs3msg7String_ISaIvEEESt14default_deleteIS5_EERKN6rclcpp11MessageInfoEEEPKcSt8functionIFT_DpT0_EE
FNDA:1,_Z10get_symbolIvJSt10shared_ptrIN8std_msgs3msg7String_ISaIvEEEEEEPKcSt8functionIFT_DpT0_EE
FNDA:1,_Z10get_symbolIRSt5_BindIFM16MinimalPublisherFvvEPS1_EEEPKcOT_
FNDA:0,_Z10get_symbolIvJSt10shared_ptrIKN8std_msgs3msg7String_ISaIvEEEERKN6rclcpp11MessageInfoEEEPKcSt8functionIFT_DpT0_EE
FNDA:0,_Z10get_symbolIvJSt10shared_ptrIN8std_msgs3msg7String_ISaIvEEEERKN6rclcpp11MessageInfoEEEPKcSt8functionIFT_DpT0_EE
FNDA:0,_Z10get_symbolIvJSt10unique_ptrIN8std_msgs3msg7String_ISaIvEEESt14default_deleteIS5_EEEEPKcSt8functionIFT_DpT0_EE
FNDA:0,_Z10get_symbolIvJSt10shared_ptrIKN8std_msgs3msg7String_ISaIvEEEEEEPKcSt8functionIFT_DpT0_EE
FNF:8
FNH:2
DA:39,1
DA:42,1
DA:44,1
DA:45,0
DA:46,0
DA:49,1
DA:60,1
DA:62,1
LF:8
LH:6
end_of_record
TN:
SF:/opt/ros/foxy/src/gtest_vendor/include/gtest/gtest-matchers.h
FN:81,_ZN7testing19MatchResultListenerC2EPSo
FN:107,_ZN7testing19MatchResultListenerD2Ev
FN:107,_ZN7testing19MatchResultListenerD0Ev
FN:114,_ZN7testing25MatcherDescriberInterfaceD2Ev
FN:114,_ZN7testing25MatcherDescriberInterfaceD0Ev
FN:129,_ZNK7testing25MatcherDescriberInterface18DescribeNegationToEPSo
FN:184,_ZN7testing8internal23MatcherInterfaceAdapterINSt7__cxx1112basic_stringIcSt11char_traitsIcESaIcEEEEC2EPKNS_16MatcherInterfaceIS7_EE
FN:186,_ZN7testing8internal23MatcherInterfaceAdapterINSt7__cxx1112basic_stringIcSt11char_traitsIcESaIcEEEED0Ev
FN:186,_ZN7testing8internal23MatcherInterfaceAdapterINSt7__cxx1112basic_stringIcSt11char_traitsIcESaIcEEEED2Ev
FN:188,_ZNK7testing8internal23MatcherInterfaceAdapterINSt7__cxx1112basic_stringIcSt11char_traitsIcESaIcEEEE10DescribeToEPSo
FN:190,_ZNK7testing8internal23MatcherInterfaceAdapterINSt7__cxx1112basic_stringIcSt11char_traitsIcESaIcEEEE18DescribeNegationToEPSo
FN:194,_ZNK7testing8internal23MatcherInterfaceAdapterINSt7__cxx1112basic_stringIcSt11char_traitsIcESaIcEEEE15MatchAndExplainERKS7_PNS_19MatchResultListenerE
FN:207,_ZNK7testing8internal5AnyEqclINSt7__cxx1112basic_stringIcSt11char_traitsIcESaIcEEES8_EEbRKT_RKT0_
FN:233,_ZN7testing8internal24DummyMatchResultListenerC2Ev
FN:259,_ZNK7testing8internal11MatcherBaseIRKNSt7__cxx1112basic_stringIcSt11char_traitsIcESaIcEEEE15MatchAndExplainES9_PNS_19MatchResultListenerE
FN:265,_ZNK7testing8internal11MatcherBaseIRKNSt7__cxx1112basic_stringIcSt11char_traitsIcESaIcEEEE7MatchesES9_
FN:271,_ZNK7testing8internal11MatcherBaseIRKNSt7__cxx1112basic_stringIcSt11char_traitsIcESaIcEEEE10DescribeToEPSo
FN:293,_ZN7testing8internal11MatcherBaseIRKNSt7__cxx1112basic_stringIcSt11char_traitsIcESaIcEEEEC2Ev
FN:293,_ZN7testing8internal11MatcherBaseINSt7__cxx1112basic_stringIcSt11char_traitsIcESaIcEEEEC2Ev
FN:296,_ZN7testing8internal11MatcherBaseIRKNSt7__cxx1112basic_stringIcSt11char_traitsIcESaIcEEEEC2EPKNS_16MatcherInterfaceIS9_EE
FN:301,_ZN7testing8internal11MatcherBaseINSt7__cxx1112basic_stringIcSt11char_traitsIcESaIcEEEEC2IS7_EEPKNS_16MatcherInterfaceIT_EEPNS0_8EnableIfIXntsrNS0_6IsSameISB_NS0_8ConstRefISB_E4typeEEE5valueEE4typeE
FN:308,_ZN7testing8internal11MatcherBaseINSt7__cxx1112basic_stringIcSt11char_traitsIcESaIcEEEED0Ev
FN:308,_ZN7testing8internal11MatcherBaseIRKNSt7__cxx1112basic_stringIcSt11char_traitsIcESaIcEEEED2Ev
FN:308,_ZN7testing8internal11MatcherBaseINSt7__cxx1112basic_stringIcSt11char_traitsIcESaIcEEEED2Ev
FN:308,_ZN7testing8internal11MatcherBaseIRKNSt7__cxx1112basic_stringIcSt11char_traitsIcESaIcEEEED0Ev
FN:354,_ZN7testing7MatcherIRKNSt7__cxx1112basic_stringIcSt11char_traitsIcESaIcEEEEC2EPKNS_16MatcherInterfaceIS8_EE
FN:379,_ZN7testing7MatcherINSt7__cxx1112basic_stringIcSt11char_traitsIcESaIcEEEEC2EPKNS_16MatcherInterfaceIS6_EE
FN:576,_ZN7testing11MakeMatcherIRKNSt7__cxx1112basic_stringIcSt11char_traitsIcESaIcEEEEENS_7MatcherIT_EEPKNS_16MatcherInterfaceISA_EE
FN:576,_ZN7testing11MakeMatcherINSt7__cxx1112basic_stringIcSt11char_traitsIcESaIcEEEEENS_7MatcherIT_EEPKNS_16MatcherInterfaceIS8_EE
FN:606,_ZN7testing8internal14ComparisonBaseINS0_9EqMatcherINSt7__cxx1112basic_stringIcSt11char_traitsIcESaIcEEEEES8_NS0_5AnyEqEEC2ERKS8_
FN:608,_ZNK7testing8internal14ComparisonBaseINS0_9EqMatcherINSt7__cxx1112basic_stringIcSt11char_traitsIcESaIcEEEEES8_NS0_5AnyEqEEcvNS_7MatcherIT_EEIRKS8_EEv
FN:608,_ZNK7testing8internal14ComparisonBaseINS0_9EqMatcherINSt7__cxx1112basic_stringIcSt11char_traitsIcESaIcEEEEES8_NS0_5AnyEqEEcvNS_7MatcherIT_EEIS8_EEv
FN:616,_ZN7testing8internal14ComparisonBaseINS0_9EqMatcherINSt7__cxx1112basic_stringIcSt11char_traitsIcESaIcEEEEES8_NS0_5AnyEqEE4ImplIRKS8_EC2ESE_
FN:616,_ZN7testing8internal14ComparisonBaseINS0_9EqMatcherINSt7__cxx1112basic_stringIcSt11char_traitsIcESaIcEEEEES8_NS0_5AnyEqEE4ImplIS8_EC2ERKS8_
FN:617,_ZNK7testing8internal14ComparisonBaseINS0_9EqMatcherINSt7__cxx1112basic_stringIcSt11char_traitsIcESaIcEEEEES8_NS0_5AnyEqEE4ImplIS8_E15MatchAndExplainES8_PNS_19MatchResultListenerE
FN:617,_ZNK7testing8internal14ComparisonBaseINS0_9EqMatcherINSt7__cxx1112basic_stringIcSt11char_traitsIcESaIcEEEEES8_NS0_5AnyEqEE4ImplIRKS8_E15MatchAndExplainESE_PNS_19MatchResultListenerE
FN:621,_ZNK7testing8internal14ComparisonBaseINS0_9EqMatcherINSt7__cxx1112basic_stringIcSt11char_traitsIcESaIcEEEEES8_NS0_5AnyEqEE4ImplIRKS8_E10DescribeToEPSo
FN:621,_ZNK7testing8internal14ComparisonBaseINS0_9EqMatcherINSt7__cxx1112basic_stringIcSt11char_traitsIcESaIcEEEEES8_NS0_5AnyEqEE4ImplIS8_E10DescribeToEPSo
FN:625,_ZNK7testing8internal14ComparisonBaseINS0_9EqMatcherINSt7__cxx1112basic_stringIcSt11char_traitsIcESaIcEEEEES8_NS0_5AnyEqEE4ImplIRKS8_E18DescribeNegationToEPSo
FN:625,_ZNK7testing8internal14ComparisonBaseINS0_9EqMatcherINSt7__cxx1112basic_stringIcSt11char_traitsIcESaIcEEEEES8_NS0_5AnyEqEE4ImplIS8_E18DescribeNegationToEPSo
FN:641,_ZN7testing8internal9EqMatcherINSt7__cxx1112basic_stringIcSt11char_traitsIcESaIcEEEEC2ERKS7_
FN:643,_ZN7testing8internal9EqMatcherINSt7__cxx1112basic_stringIcSt11char_traitsIcESaIcEEEE4DescEv
FN:644,_ZN7testing8internal9EqMatcherINSt7__cxx1112basic_stringIcSt11char_traitsIcESaIcEEEE11NegatedDescEv
FN:769,_ZN7testing2EqINSt7__cxx1112basic_stringIcSt11char_traitsIcESaIcEEEEENS_8internal9EqMatcherIT_EES9_
FNDA:0,_ZN7testing8internal11MatcherBaseINSt7__cxx1112basic_stringIcSt11char_traitsIcESaIcEEEEC2IS7_EEPKNS_16MatcherInterfaceIT_EEPNS0_8EnableIfIXntsrNS0_6IsSameISB_NS0_8ConstRefISB_E4typeEEE5valueEE4typeE
FNDA:0,_ZNK7testing25MatcherDescriberInterface18DescribeNegationToEPSo
FNDA:0,_ZN7testing8internal11MatcherBaseIRKNSt7__cxx1112basic_stringIcSt11char_traitsIcESaIcEEEED2Ev
FNDA:0,_ZNK7testing8internal14ComparisonBaseINS0_9EqMatcherINSt7__cxx1112basic_stringIcSt11char_traitsIcESaIcEEEEES8_NS0_5AnyEqEE4ImplIRKS8_E18DescribeNegationToEPSo
FNDA:0,_ZN7testing8internal9EqMatcherINSt7__cxx1112basic_stringIcSt11char_traitsIcESaIcEEEE11NegatedDescEv
FNDA:0,_ZN7testing25MatcherDescriberInterfaceD2Ev
FNDA:0,_ZN7testing8internal9EqMatcherINSt7__cxx1112basic_stringIcSt11char_traitsIcESaIcEEEEC2ERKS7_
FNDA:0,_ZNK7testing8internal23MatcherInterfaceAdapterINSt7__cxx1112basic_stringIcSt11char_traitsIcESaIcEEEE18DescribeNegationToEPSo
FNDA:0,_ZN7testing19MatchResultListenerD0Ev
FNDA:0,_ZNK7testing8internal14ComparisonBaseINS0_9EqMatcherINSt7__cxx1112basic_stringIcSt11char_traitsIcESaIcEEEEES8_NS0_5AnyEqEEcvNS_7MatcherIT_EEIRKS8_EEv
FNDA:0,_ZNK7testing8internal14ComparisonBaseINS0_9EqMatcherINSt7__cxx1112basic_stringIcSt11char_traitsIcESaIcEEEEES8_NS0_5AnyEqEE4ImplIS8_E18DescribeNegationToEPSo
FNDA:0,_ZN7testing19MatchResultListenerD2Ev
FNDA:0,_ZNK7testing8internal14ComparisonBaseINS0_9EqMatcherINSt7__cxx1112basic_stringIcSt11char_traitsIcESaIcEEEEES8_NS0_5AnyEqEE4ImplIS8_E15MatchAndExplainES8_PNS_19MatchResultListenerE
FNDA:0,_ZNK7testing8internal23MatcherInterfaceAdapterINSt7__cxx1112basic_stringIcSt11char_traitsIcESaIcEEEE15MatchAndExplainERKS7_PNS_19MatchResultListenerE
FNDA:0,_ZN7testing7MatcherINSt7__cxx1112basic_stringIcSt11char_traitsIcESaIcEEEEC2EPKNS_16MatcherInterfaceIS6_EE
FNDA:0,_ZN7testing8internal11MatcherBaseIRKNSt7__cxx1112basic_stringIcSt11char_traitsIcESaIcEEEEC2Ev
FNDA:0,_ZN7testing8internal23MatcherInterfaceAdapterINSt7__cxx1112basic_stringIcSt11char_traitsIcESaIcEEEEC2EPKNS_16MatcherInterfaceIS7_EE
FNDA:0,_ZN7testing8internal9EqMatcherINSt7__cxx1112basic_stringIcSt11char_traitsIcESaIcEEEE4DescEv
FNDA:0,_ZN7testing8internal23MatcherInterfaceAdapterINSt7__cxx1112basic_stringIcSt11char_traitsIcESaIcEEEED0Ev
FNDA:0,_ZN7testing8internal14ComparisonBaseINS0_9EqMatcherINSt7__cxx1112basic_stringIcSt11char_traitsIcESaIcEEEEES8_NS0_5AnyEqEE4ImplIRKS8_EC2ESE_
FNDA:0,_ZNK7testing8internal14ComparisonBaseINS0_9EqMatcherINSt7__cxx1112basic_stringIcSt11char_traitsIcESaIcEEEEES8_NS0_5AnyEqEE4ImplIRKS8_E15MatchAndExplainESE_PNS_19MatchResultListenerE
FNDA:0,_ZNK7testing8internal14ComparisonBaseINS0_9EqMatcherINSt7__cxx1112basic_stringIcSt11char_traitsIcESaIcEEEEES8_NS0_5AnyEqEE4ImplIRKS8_E10DescribeToEPSo
FNDA:0,_ZN7testing8internal24DummyMatchResultListenerC2Ev
FNDA:0,_ZN7testing2EqINSt7__cxx1112basic_stringIcSt11char_traitsIcESaIcEEEEENS_8internal9EqMatcherIT_EES9_
FNDA:0,_ZN7testing8internal11MatcherBaseINSt7__cxx1112basic_stringIcSt11char_traitsIcESaIcEEEED0Ev
FNDA:0,_ZN7testing7MatcherIRKNSt7__cxx1112basic_stringIcSt11char_traitsIcESaIcEEEEC2EPKNS_16MatcherInterfaceIS8_EE
FNDA:0,_ZNK7testing8internal23MatcherInterfaceAdapterINSt7__cxx1112basic_stringIcSt11char_traitsIcESaIcEEEE10DescribeToEPSo
FNDA:0,_ZN7testing25MatcherDescriberInterfaceD0Ev
FNDA:0,_ZN7testing8internal11MatcherBaseIRKNSt7__cxx1112basic_stringIcSt11char_traitsIcESaIcEEEED0Ev
FNDA:0,_ZNK7testing8internal14ComparisonBaseINS0_9EqMatcherINSt7__cxx1112basic_stringIcSt11char_traitsIcESaIcEEEEES8_NS0_5AnyEqEE4ImplIS8_E10DescribeToEPSo
FNDA:0,_ZN7testing8internal23MatcherInterfaceAdapterINSt7__cxx1112basic_stringIcSt11char_traitsIcESaIcEEEED2Ev
FNDA:0,_ZNK7testing8internal11MatcherBaseIRKNSt7__cxx1112basic_stringIcSt11char_traitsIcESaIcEEEE10DescribeToEPSo
FNDA:0,_ZNK7testing8internal11MatcherBaseIRKNSt7__cxx1112basic_stringIcSt11char_traitsIcESaIcEEEE7MatchesES9_
FNDA:0,_ZNK7testing8internal14ComparisonBaseINS0_9EqMatcherINSt7__cxx1112basic_stringIcSt11char_traitsIcESaIcEEEEES8_NS0_5AnyEqEEcvNS_7MatcherIT_EEIS8_EEv
FNDA:0,_ZN7testing8internal11MatcherBaseIRKNSt7__cxx1112basic_stringIcSt11char_traitsIcESaIcEEEEC2EPKNS_16MatcherInterfaceIS9_EE
FNDA:0,_ZNK7testing8internal11MatcherBaseIRKNSt7__cxx1112basic_stringIcSt11char_traitsIcESaIcEEEE15MatchAndExplainES9_PNS_19MatchResultListenerE
FNDA:0,_ZN7testing8internal11MatcherBaseINSt7__cxx1112basic_stringIcSt11char_traitsIcESaIcEEEEC2Ev
FNDA:0,_ZN7testing8internal14ComparisonBaseINS0_9EqMatcherINSt7__cxx1112basic_stringIcSt11char_traitsIcESaIcEEEEES8_NS0_5AnyEqEE4ImplIS8_EC2ERKS8_
FNDA:0,_ZN7testing11MakeMatcherIRKNSt7__cxx1112basic_stringIcSt11char_traitsIcESaIcEEEEENS_7MatcherIT_EEPKNS_16MatcherInterfaceISA_EE
FNDA:0,_ZN7testing11MakeMatcherINSt7__cxx1112basic_stringIcSt11char_traitsIcESaIcEEEEENS_7MatcherIT_EEPKNS_16MatcherInterfaceIS8_EE
FNDA:0,_ZNK7testing8internal5AnyEqclINSt7__cxx1112basic_stringIcSt11char_traitsIcESaIcEEES8_EEbRKT_RKT0_
FNDA:0,_ZN7testing8internal14ComparisonBaseINS0_9EqMatcherINSt7__cxx1112basic_stringIcSt11char_traitsIcESaIcEEEEES8_NS0_5AnyEqEEC2ERKS8_
FNDA:0,_ZN7testing8internal11MatcherBaseINSt7__cxx1112basic_stringIcSt11char_traitsIcESaIcEEEED2Ev
FNDA:0,_ZN7testing19MatchResultListenerC2EPSo
FNF:44
FNH:0
DA:81,0
DA:107,0
DA:108,0
DA:114,0
DA:129,0
DA:130,0
DA:131,0
DA:132,0
DA:133,0
DA:184,0
DA:185,0
DA:186,0
DA:188,0
DA:190,0
DA:191,0
DA:192,0
DA:194,0
DA:196,0
DA:207,0
DA:233,0
DA:259,0
DA:261,0
DA:265,0
DA:266,0
DA:267,0
DA:271,0
DA:293,0
DA:296,0
DA:298,0
DA:301,0
DA:306,0
DA:308,0
DA:354,0
DA:355,0
DA:379,0
DA:380,0
DA:576,0
DA:577,0
DA:606,0
DA:608,0
DA:609,0
DA:616,0
DA:617,0
DA:619,0
DA:621,0
DA:622,0
DA:623,0
DA:624,0
DA:625,0
DA:626,0
DA:627,0
DA:628,0
DA:641,0
DA:642,0
DA:643,0
DA:644,0
DA:769,0
LF:57
LH:0
end_of_record
TN:
SF:/opt/ros/foxy/src/gtest_vendor/include/gtest/gtest-message.h
FN:101,_ZN7testing7MessageC2ERKS0_
FN:120,_ZN7testing7MessagelsIA64_cEERS0_RKT_
FN:120,_ZN7testing7MessagelsIA28_cEERS0_RKT_
FN:120,_ZN7testing7MessagelsIA29_cEERS0_RKT_
FN:120,_ZN7testing7MessagelsIA19_cEERS0_RKT_
FN:120,_ZN7testing7MessagelsIA24_cEERS0_RKT_
FN:120,_ZN7testing7MessagelsIA50_cEERS0_RKT_
FN:120,_ZN7testing7MessagelsIA106_cEERS0_RKT_
FN:120,_ZN7testing7MessagelsIA5_cEERS0_RKT_
FN:120,_ZN7testing7MessagelsIA35_cEERS0_RKT_
FN:120,_ZN7testing7MessagelsIA40_cEERS0_RKT_
FN:120,_ZN7testing7MessagelsIA59_cEERS0_RKT_
FN:120,_ZN7testing7MessagelsIxEERS0_RKT_
FN:120,_ZN7testing7MessagelsIA48_cEERS0_RKT_
FN:120,_ZN7testing7MessagelsImEERS0_RKT_
FN:120,_ZN7testing7MessagelsIA4_cEERS0_RKT_
FN:120,_ZN7testing7MessagelsIA16_cEERS0_RKT_
FN:120,_ZN7testing7MessagelsIA6_cEERS0_RKT_
FN:120,_ZN7testing7MessagelsIA256_cEERS0_RKT_
FN:120,_ZN7testing7MessagelsIA9_cEERS0_RKT_
FN:120,_ZN7testing7MessagelsIA51_cEERS0_RKT_
FN:120,_ZN7testing7MessagelsINSt7__cxx1112basic_stringIcSt11char_traitsIcESaIcEEEEERS0_RKT_
FN:120,_ZN7testing7MessagelsIdEERS0_RKT_
FN:120,_ZN7testing7MessagelsIcEERS0_RKT_
FN:120,_ZN7testing7MessagelsIA3_cEERS0_RKT_
FN:120,_ZN7testing7MessagelsIA68_cEERS0_RKT_
FN:120,_ZN7testing7MessagelsIA14_cEERS0_RKT_
FN:120,_ZN7testing7MessagelsIA10_cEERS0_RKT_
FN:120,_ZN7testing7MessagelsIA62_cEERS0_RKT_
FN:120,_ZN7testing7MessagelsIA39_cEERS0_RKT_
FN:120,_ZN7testing7MessagelsIA53_cEERS0_RKT_
FN:120,_ZN7testing7MessagelsIA34_cEERS0_RKT_
FN:120,_ZN7testing7MessagelsIA33_cEERS0_RKT_
FN:120,_ZN7testing7MessagelsIA17_cEERS0_RKT_
FN:120,_ZN7testing7MessagelsIA63_cEERS0_RKT_
FN:120,_ZN7testing7MessagelsIA12_cEERS0_RKT_
FN:120,_ZN7testing7MessagelsIA25_cEERS0_RKT_
FN:120,_ZN7testing7MessagelsIA15_cEERS0_RKT_
FN:120,_ZN7testing7MessagelsIA52_cEERS0_RKT_
FN:120,_ZN7testing7MessagelsIA31_cEERS0_RKT_
FN:120,_ZN7testing7MessagelsIA7_cEERS0_RKT_
FN:120,_ZN7testing7MessagelsIA61_cEERS0_RKT_
FN:120,_ZN7testing7MessagelsIiEERS0_RKT_
FN:120,_ZN7testing7MessagelsIA41_cEERS0_RKT_
FN:120,_ZN7testing7MessagelsIA30_cEERS0_RKT_
FN:120,_ZN7testing7MessagelsIA21_cEERS0_RKT_
FN:120,_ZN7testing7MessagelsIA47_cEERS0_RKT_
FN:120,_ZN7testing7MessagelsIS0_EERS0_RKT_
FN:120,_ZN7testing7MessagelsIA37_cEERS0_RKT_
FN:120,_ZN7testing7MessagelsINS_14TestPartResultEEERS0_RKT_
FN:120,_ZN7testing7MessagelsIA8_cEERS0_RKT_
FN:120,_ZN7testing7MessagelsIA22_cEERS0_RKT_
FN:120,_ZN7testing7MessagelsIA20_cEERS0_RKT_
FN:120,_ZN7testing7MessagelsIA18_cEERS0_RKT_
FN:120,_ZN7testing7MessagelsIA2_cEERS0_RKT_
FN:120,_ZN7testing7MessagelsIA13_cEERS0_RKT_
FN:120,_ZN7testing7MessagelsIA11_cEERS0_RKT_
FN:154,_ZN7testing7MessagelsIKcEERS0_RKPT_
FN:154,_ZN7testing7MessagelsIcEERS0_RKPT_
FN:236,_ZN7testinglsERSoRKNS_7MessageE
FN:247,_ZN7testing8internal18StreamableToStringIPwEENSt7__cxx1112basic_stringIcSt11char_traitsIcESaIcEEERKT_
FN:247,_ZN7testing8internal18StreamableToStringIxEENSt7__cxx1112basic_stringIcSt11char_traitsIcESaIcEEERKT_
FN:247,_ZN7testing8internal18StreamableToStringIPcEENSt7__cxx1112basic_stringIcSt11char_traitsIcESaIcEEERKT_
FN:247,_ZN7testing8internal18StreamableToStringIiEENSt7__cxx1112basic_stringIcSt11char_traitsIcESaIcEEERKT_
FNDA:0,_ZN7testing7MessagelsIA18_cEERS0_RKT_
FNDA:0,_ZN7testing7MessagelsIA20_cEERS0_RKT_
FNDA:0,_ZN7testing7MessagelsIA22_cEERS0_RKT_
FNDA:0,_ZN7testing7MessagelsIA11_cEERS0_RKT_
FNDA:112,_ZN7testing8internal18StreamableToStringIiEENSt7__cxx1112basic_stringIcSt11char_traitsIcESaIcEEERKT_
FNDA:0,_ZN7testing7MessagelsIA2_cEERS0_RKT_
FNDA:0,_ZN7testing7MessagelsIA13_cEERS0_RKT_
FNDA:24,_ZN7testing7MessagelsIcEERS0_RKPT_
FNDA:24,_ZN7testing8internal18StreamableToStringIPcEENSt7__cxx1112basic_stringIcSt11char_traitsIcESaIcEEERKT_
FNDA:0,_ZN7testing7MessagelsIA8_cEERS0_RKT_
FNDA:0,_ZN7testing7MessagelsIA21_cEERS0_RKT_
FNDA:0,_ZN7testing7MessagelsIA47_cEERS0_RKT_
FNDA:24,_ZN7testing8internal18StreamableToStringIxEENSt7__cxx1112basic_stringIcSt11char_traitsIcESaIcEEERKT_
FNDA:0,_ZN7testing7MessagelsIA30_cEERS0_RKT_
FNDA:0,_ZN7testing7MessagelsIA41_cEERS0_RKT_
FNDA:0,_ZN7testing7MessagelsINS_14TestPartResultEEERS0_RKT_
FNDA:0,_ZN7testing7MessagelsIA37_cEERS0_RKT_
FNDA:0,_ZN7testing7MessagelsIS0_EERS0_RKT_
FNDA:0,_ZN7testing7MessagelsIA25_cEERS0_RKT_
FNDA:0,_ZN7testing7MessagelsIA15_cEERS0_RKT_
FNDA:0,_ZN7testing7MessageC2ERKS0_
FNDA:0,_ZN7testing7MessagelsIA12_cEERS0_RKT_
FNDA:0,_ZN7testing7MessagelsIA17_cEERS0_RKT_
FNDA:0,_ZN7testing7MessagelsIA63_cEERS0_RKT_
FNDA:112,_ZN7testing7MessagelsIiEERS0_RKT_
FNDA:0,_ZN7testing7MessagelsIA61_cEERS0_RKT_
FNDA:144,_ZN7testing7MessagelsIA7_cEERS0_RKT_
FNDA:0,_ZN7testing7MessagelsIA52_cEERS0_RKT_
FNDA:0,_ZN7testing7MessagelsIA31_cEERS0_RKT_
FNDA:0,_ZN7testing7MessagelsIA39_cEERS0_RKT_
FNDA:0,_ZN7testinglsERSoRKNS_7MessageE
FNDA:0,_ZN7testing7MessagelsIA14_cEERS0_RKT_
FNDA:0,_ZN7testing7MessagelsIA10_cEERS0_RKT_
FNDA:0,_ZN7testing7MessagelsIA62_cEERS0_RKT_
FNDA:0,_ZN7testing7MessagelsIA33_cEERS0_RKT_
FNDA:0,_ZN7testing7MessagelsIA34_cEERS0_RKT_
FNDA:0,_ZN7testing7MessagelsIA53_cEERS0_RKT_
FNDA:0,_ZN7testing7MessagelsINSt7__cxx1112basic_stringIcSt11char_traitsIcESaIcEEEEERS0_RKT_
FNDA:0,_ZN7testing7MessagelsIA9_cEERS0_RKT_
FNDA:0,_ZN7testing7MessagelsIA51_cEERS0_RKT_
FNDA:0,_ZN7testing7MessagelsIA256_cEERS0_RKT_
FNDA:0,_ZN7testing7MessagelsIA68_cEERS0_RKT_
FNDA:0,_ZN7testing7MessagelsIA3_cEERS0_RKT_
FNDA:0,_ZN7testing7MessagelsIdEERS0_RKT_
FNDA:3384,_ZN7testing7MessagelsIcEERS0_RKT_
FNDA:0,_ZN7testing7MessagelsImEERS0_RKT_
FNDA:0,_ZN7testing7MessagelsIA48_cEERS0_RKT_
FNDA:24,_ZN7testing7MessagelsIxEERS0_RKT_
FNDA:0,_ZN7testing7MessagelsIA59_cEERS0_RKT_
FNDA:0,_ZN7testing7MessagelsIA16_cEERS0_RKT_
FNDA:0,_ZN7testing7MessagelsIA6_cEERS0_RKT_
FNDA:0,_ZN7testing7MessagelsIA4_cEERS0_RKT_
FNDA:144,_ZN7testing7MessagelsIKcEERS0_RKPT_
FNDA:0,_ZN7testing7MessagelsIA24_cEERS0_RKT_
FNDA:0,_ZN7testing7MessagelsIA29_cEERS0_RKT_
FNDA:0,_ZN7testing7MessagelsIA19_cEERS0_RKT_
FNDA:0,_ZN7testing7MessagelsIA28_cEERS0_RKT_
FNDA:0,_ZN7testing7MessagelsIA64_cEERS0_RKT_
FNDA:0,_ZN7testing8internal18StreamableToStringIPwEENSt7__cxx1112basic_stringIcSt11char_traitsIcESaIcEEERKT_
FNDA:0,_ZN7testing7MessagelsIA35_cEERS0_RKT_
FNDA:0,_ZN7testing7MessagelsIA40_cEERS0_RKT_
FNDA:0,_ZN7testing7MessagelsIA5_cEERS0_RKT_
FNDA:0,_ZN7testing7MessagelsIA106_cEERS0_RKT_
FNDA:0,_ZN7testing7MessagelsIA50_cEERS0_RKT_
FNF:64
FNH:9
DA:101,0
DA:102,0
DA:103,0
DA:120,3664
DA:136,3664
DA:137,3664
DA:154,168
DA:155,168
DA:156,0
DA:158,168
DA:160,168
DA:236,0
DA:237,0
DA:247,160
DA:248,320
LF:15
LH:9
end_of_record
TN:
SF:/opt/ros/foxy/src/gtest_vendor/include/gtest/gtest-printers.h
FN:259,_ZN16testing_internal26DefaultPrintNonContainerToIxEEvRKT_PSo
FN:312,_ZN7testing8internal19FormatForComparisonIxxE6FormatB5cxx11ERKx
FN:386,_ZN7testing8internal33FormatForComparisonFailureMessageIxxEENSt7__cxx1112basic_stringIcSt11char_traitsIcESaIcEEERKT_RKT0_
FN:475,_ZN7testing8internal14DefaultPrintToIxEEvNS0_15WrapPrinterTypeILNS0_18DefaultPrinterTypeE3EEERKT_PSo
FN:492,_ZN7testing8internal7PrintToIxEEvRKT_PSo
FN:610,_ZN7testing8internal7PrintToERKNSt7__cxx1112basic_stringIcSt11char_traitsIcESaIcEEEPSo
FN:624,_ZN7testing8internal7PrintToERKNSt7__cxx1112basic_stringIwSt11char_traitsIwESaIwEEEPSo
FN:694,_ZN7testing8internal16UniversalPrinterINSt7__cxx1112basic_stringIcSt11char_traitsIcESaIcEEEE5PrintERKS7_PSo
FN:694,_ZN7testing8internal16UniversalPrinterIxE5PrintERKxPSo
FN:694,_ZN7testing8internal16UniversalPrinterINSt7__cxx1112basic_stringIwSt11char_traitsIwESaIwEEEE5PrintERKS7_PSo
FN:821,_ZN7testing8internal21UniversalTersePrinterIxE5PrintERKxPSo
FN:842,_ZN7testing8internal21UniversalTersePrinterIPKcE5PrintES3_PSo
FN:862,_ZN7testing8internal21UniversalTersePrinterIPKwE5PrintES3_PSo
FN:890,_ZN7testing8internal14UniversalPrintINSt7__cxx1112basic_stringIwSt11char_traitsIwESaIwEEEEEvRKT_PSo
FN:890,_ZN7testing8internal14UniversalPrintIxEEvRKT_PSo
FN:890,_ZN7testing8internal14UniversalPrintINSt7__cxx1112basic_stringIcSt11char_traitsIcESaIcEEEEEvRKT_PSo
FN:940,_ZN7testing13PrintToStringIPKcEENSt7__cxx1112basic_stringIcSt11char_traitsIcESaIcEEERKT_
FN:940,_ZN7testing13PrintToStringIPKwEENSt7__cxx1112basic_stringIcSt11char_traitsIcESaIcEEERKT_
FN:940,_ZN7testing13PrintToStringIxEENSt7__cxx1112basic_stringIcSt11char_traitsIcESaIcEEERKT_
FNDA:0,_ZN7testing8internal14UniversalPrintIxEEvRKT_PSo
FNDA:0,_ZN7testing8internal16UniversalPrinterIxE5PrintERKxPSo
FNDA:0,_ZN7testing8internal33FormatForComparisonFailureMessageIxxEENSt7__cxx1112basic_stringIcSt11char_traitsIcESaIcEEERKT_RKT0_
FNDA:0,_ZN7testing8internal21UniversalTersePrinterIxE5PrintERKxPSo
FNDA:0,_ZN7testing8internal21UniversalTersePrinterIPKcE5PrintES3_PSo
FNDA:0,_ZN7testing8internal16UniversalPrinterINSt7__cxx1112basic_stringIcSt11char_traitsIcESaIcEEEE5PrintERKS7_PSo
FNDA:0,_ZN7testing8internal14DefaultPrintToIxEEvNS0_15WrapPrinterTypeILNS0_18DefaultPrinterTypeE3EEERKT_PSo
FNDA:0,_ZN7testing13PrintToStringIPKwEENSt7__cxx1112basic_stringIcSt11char_traitsIcESaIcEEERKT_
FNDA:0,_ZN7testing8internal14UniversalPrintINSt7__cxx1112basic_stringIwSt11char_traitsIwESaIwEEEEEvRKT_PSo
FNDA:0,_ZN7testing13PrintToStringIPKcEENSt7__cxx1112basic_stringIcSt11char_traitsIcESaIcEEERKT_
FNDA:0,_ZN7testing13PrintToStringIxEENSt7__cxx1112basic_stringIcSt11char_traitsIcESaIcEEERKT_
FNDA:0,_ZN7testing8internal7PrintToERKNSt7__cxx1112basic_stringIwSt11char_traitsIwESaIwEEEPSo
FNDA:0,_ZN7testing8internal19FormatForComparisonIxxE6FormatB5cxx11ERKx
FNDA:0,_ZN7testing8internal21UniversalTersePrinterIPKwE5PrintES3_PSo
FNDA:0,_ZN7testing8internal14UniversalPrintINSt7__cxx1112basic_stringIcSt11char_traitsIcESaIcEEEEEvRKT_PSo
FNDA:0,_ZN7testing8internal16UniversalPrinterINSt7__cxx1112basic_stringIwSt11char_traitsIwESaIwEEEE5PrintERKS7_PSo
FNDA:0,_ZN16testing_internal26DefaultPrintNonContainerToIxEEvRKT_PSo
FNDA:0,_ZN7testing8internal7PrintToERKNSt7__cxx1112basic_stringIcSt11char_traitsIcESaIcEEEPSo
FNDA:0,_ZN7testing8internal7PrintToIxEEvRKT_PSo
FNF:19
FNH:0
DA:259,0
DA:286,0
DA:287,0
DA:312,0
DA:313,0
DA:386,0
DA:388,0
DA:475,0
DA:477,0
DA:478,0
DA:492,0
DA:512,0
DA:523,0
DA:610,0
DA:611,0
DA:612,0
DA:624,0
DA:625,0
DA:626,0
DA:694,0
DA:703,0
DA:704,0
DA:821,0
DA:822,0
DA:823,0
DA:842,0
DA:843,0
DA:844,0
DA:846,0
DA:848,0
DA:862,0
DA:863,0
DA:864,0
DA:866,0
DA:868,0
DA:890,0
DA:894,0
DA:895,0
DA:940,0
DA:941,0
DA:942,0
DA:943,0
LF:42
LH:0
end_of_record
TN:
SF:/opt/ros/foxy/src/gtest_vendor/include/gtest/gtest-test-part.h
FN:63,_ZN7testing14TestPartResultC2ENS0_4TypeEPKciS3_
FN:72,_ZNK7testing14TestPartResult4typeEv
FN:76,_ZNK7testing14TestPartResult9file_nameEv
FN:82,_ZNK7testing14TestPartResult11line_numberEv
FN:85,_ZNK7testing14TestPartResult7summaryEv
FN:88,_ZNK7testing14TestPartResult7messageEv
FN:91,_ZNK7testing14TestPartResult7skippedEv
FN:97,_ZNK7testing14TestPartResult17nonfatally_failedEv
FN:100,_ZNK7testing14TestPartResult14fatally_failedEv
FN:103,_ZNK7testing14TestPartResult6failedEv
FN:151,_ZN7testing31TestPartResultReporterInterfaceD0Ev
FN:151,_ZN7testing31TestPartResultReporterInterfaceD2Ev
FNDA:0,_ZNK7testing14TestPartResult4typeEv
FNDA:0,_ZN7testing31TestPartResultReporterInterfaceD0Ev
FNDA:0,_ZNK7testing14TestPartResult14fatally_failedEv
FNDA:0,_ZNK7testing14TestPartResult17nonfatally_failedEv
FNDA:0,_ZN7testing14TestPartResultC2ENS0_4TypeEPKciS3_
FNDA:0,_ZNK7testing14TestPartResult6failedEv
FNDA:0,_ZNK7testing14TestPartResult11line_numberEv
FNDA:0,_ZNK7testing14TestPartResult7messageEv
FNDA:0,_ZNK7testing14TestPartResult7skippedEv
FNDA:16,_ZN7testing31TestPartResultReporterInterfaceD2Ev
FNDA:0,_ZNK7testing14TestPartResult9file_nameEv
FNDA:0,_ZNK7testing14TestPartResult7summaryEv
FNF:12
FNH:1
DA:63,0
DA:65,0
DA:69,0
DA:72,0
DA:76,0
DA:77,0
DA:82,0
DA:85,0
DA:88,0
DA:91,0
DA:97,0
DA:100,0
DA:103,0
DA:151,16
LF:14
LH:1
end_of_record
TN:
SF:/opt/ros/foxy/src/gtest_vendor/include/gtest/gtest.h
FN:301,_ZN7testing15AssertionResultC2IbEERKT_PNS_8internal8EnableIfIXntsrNS5_21ImplicitlyConvertibleIS2_S0_EE5valueEE4typeE
FN:320,_ZNK7testing15AssertionResultcvbEv
FN:329,_ZNK7testing15AssertionResult7messageEv
FN:334,_ZNK7testing15AssertionResult15failure_messageEv
FN:337,_ZN7testing15AssertionResultlsIA16_cEERS0_RKT_
FN:337,_ZN7testing15AssertionResultlsINSt7__cxx1112basic_stringIcSt11char_traitsIcESaIcEEEEERS0_RKT_
FN:337,_ZN7testing15AssertionResultlsINS_7MessageEEERS0_RKT_
FN:337,_ZN7testing15AssertionResultlsIA5_cEERS0_RKT_
FN:337,_ZN7testing15AssertionResultlsIPKcEERS0_RKT_
FN:337,_ZN7testing15AssertionResultlsIA14_cEERS0_RKT_
FN:337,_ZN7testing15AssertionResultlsIA13_cEERS0_RKT_
FN:337,_ZN7testing15AssertionResultlsIA17_cEERS0_RKT_
FN:337,_ZN7testing15AssertionResultlsIA12_cEERS0_RKT_
FN:337,_ZN7testing15AssertionResultlsIA29_cEERS0_RKT_
FN:337,_ZN7testing15AssertionResultlsINSt7__cxx1112basic_stringIwSt11char_traitsIwESaIwEEEEERS0_RKT_
FN:337,_ZN7testing15AssertionResultlsIA7_cEERS0_RKT_
FN:337,_ZN7testing15AssertionResultlsIA15_cEERS0_RKT_
FN:337,_ZN7testing15AssertionResultlsIA9_cEERS0_RKT_
FN:337,_ZN7testing15AssertionResultlsIA11_cEERS0_RKT_
FN:337,_ZN7testing15AssertionResultlsIA24_cEERS0_RKT_
FN:337,_ZN7testing15AssertionResultlsIA6_cEERS0_RKT_
FN:337,_ZN7testing15AssertionResultlsINS_14TestPartResultEEERS0_RKT_
FN:337,_ZN7testing15AssertionResultlsIA2_cEERS0_RKT_
FN:337,_ZN7testing15AssertionResultlsIA3_cEERS0_RKT_
FN:337,_ZN7testing15AssertionResultlsIdEERS0_RKT_
FN:337,_ZN7testing15AssertionResultlsIPKwEERS0_RKT_
FN:352,_ZN7testing15AssertionResult13AppendMessageERKNS_7MessageE
FN:429,_ZN7testing4Test13SetUpTestCaseEv
FN:437,_ZN7testing4Test16TearDownTestCaseEv
FN:496,_ZN7testing4Test11DeleteSelf_Ev
FN:517,_ZN7testing4Test5SetupEv
FN:534,_ZN7testing12TestPropertyC2ERKNSt7__cxx1112basic_stringIcSt11char_traitsIcESaIcEEES8_
FN:539,_ZNK7testing12TestProperty3keyEv
FN:544,_ZNK7testing12TestProperty5valueEv
FN:549,_ZN7testing12TestProperty8SetValueERKNSt7__cxx1112basic_stringIcSt11char_traitsIcESaIcEEE
FN:582,_ZNK7testing10TestResult6PassedEv
FN:597,_ZNK7testing10TestResult12elapsed_timeEv
FN:630,_ZN7testing10TestResult16set_elapsed_timeEx
FN:651,_ZNK7testing10TestResult16death_test_countEv
FN:654,_ZN7testing10TestResult26increment_death_test_countEv
FN:697,_ZNK7testing8TestInfo14test_case_nameEv
FN:700,_ZNK7testing8TestInfo4nameEv
FN:704,_ZNK7testing8TestInfo10type_paramEv
FN:711,_ZNK7testing8TestInfo11value_paramEv
FN:717,_ZNK7testing8TestInfo4fileEv
FN:720,_ZNK7testing8TestInfo4lineEv
FN:723,_ZNK7testing8TestInfo19is_in_another_shardEv
FN:741,_ZNK7testing8TestInfo10should_runEv
FN:744,_ZNK7testing8TestInfo13is_reportableEv
FN:751,_ZNK7testing8TestInfo6resultEv
FN:784,_ZN7testing8TestInfo26increment_death_test_countEv
FN:792,_ZN7testing8TestInfo15ClearTestResultEPS0_
FN:847,_ZNK7testing8TestCase4nameEv
FN:851,_ZNK7testing8TestCase10type_paramEv
FN:857,_ZNK7testing8TestCase10should_runEv
FN:884,_ZNK7testing8TestCase6PassedEv
FN:887,_ZNK7testing8TestCase6FailedEv
FN:890,_ZNK7testing8TestCase12elapsed_timeEv
FN:898,_ZNK7testing8TestCase18ad_hoc_test_resultEv
FN:905,_ZN7testing8TestCase14test_info_listEv
FN:908,_ZNK7testing8TestCase14test_info_listEv
FN:917,_ZN7testing8TestCase14set_should_runEb
FN:927,_ZN7testing8TestCase19ClearTestCaseResultEPS0_
FN:936,_ZN7testing8TestCase16RunSetUpTestCaseEv
FN:940,_ZN7testing8TestCase19RunTearDownTestCaseEv
FN:943,_ZN7testing8TestCase10TestPassedEPKNS_8TestInfoE
FN:948,_ZN7testing8TestCase11TestSkippedEPKNS_8TestInfoE
FN:953,_ZN7testing8TestCase10TestFailedEPKNS_8TestInfoE
FN:959,_ZN7testing8TestCase22TestReportableDisabledEPKNS_8TestInfoE
FN:964,_ZN7testing8TestCase12TestDisabledEPKNS_8TestInfoE
FN:969,_ZN7testing8TestCase14TestReportableEPKNS_8TestInfoE
FN:974,_ZN7testing8TestCase13ShouldRunTestEPKNS_8TestInfoE
FN:1059,_ZN7testing17TestEventListenerD2Ev
FN:1059,_ZN7testing17TestEventListenerD0Ev
FN:1114,_ZN7testing22EmptyTestEventListener18OnTestProgramStartERKNS_8UnitTestE
FN:1115,_ZN7testing22EmptyTestEventListener20OnTestIterationStartERKNS_8UnitTestEi
FN:1117,_ZN7testing22EmptyTestEventListener24OnEnvironmentsSetUpStartERKNS_8UnitTestE
FN:1118,_ZN7testing22EmptyTestEventListener22OnEnvironmentsSetUpEndERKNS_8UnitTestE
FN:1119,_ZN7testing22EmptyTestEventListener15OnTestCaseStartERKNS_8TestCaseE
FN:1120,_ZN7testing22EmptyTestEventListener11OnTestStartERKNS_8TestInfoE
FN:1121,_ZN7testing22EmptyTestEventListener16OnTestPartResultERKNS_14TestPartResultE
FN:1122,_ZN7testing22EmptyTestEventListener9OnTestEndERKNS_8TestInfoE
FN:1123,_ZN7testing22EmptyTestEventListener13OnTestCaseEndERKNS_8TestCaseE
FN:1124,_ZN7testing22EmptyTestEventListener27OnEnvironmentsTearDownStartERKNS_8UnitTestE
FN:1125,_ZN7testing22EmptyTestEventListener25OnEnvironmentsTearDownEndERKNS_8UnitTestE
FN:1126,_ZN7testing22EmptyTestEventListener18OnTestIterationEndERKNS_8UnitTestEi
FN:1128,_ZN7testing22EmptyTestEventListener16OnTestProgramEndERKNS_8UnitTestE
FN:1356,_ZN7testing8UnitTest4implEv
FN:1357,_ZNK7testing8UnitTest4implEv
FN:1759,_ZN7testing8internal12AssertHelper16AssertHelperDataC2ENS_14TestPartResult4TypeEPKciS6_
FN:2369,_Z13RUN_ALL_TESTSv
FNDA:8,_ZN7testing8TestInfo15ClearTestResultEPS0_
FNDA:0,_ZN7testing15AssertionResultlsIPKwEERS0_RKT_
FNDA:88,_ZNK7testing8TestInfo6resultEv
FNDA:8,_ZN7testing22EmptyTestEventListener9OnTestEndERKNS_8TestInfoE
FNDA:0,_ZN7testing15AssertionResultlsIdEERS0_RKT_
FNDA:0,_ZN7testing12TestProperty8SetValueERKNSt7__cxx1112basic_stringIcSt11char_traitsIcESaIcEEE
FNDA:8,_ZNK7testing8TestCase14test_info_listEv
FNDA:16,_ZNK7testing10TestResult12elapsed_timeEv
FNDA:24,_ZN7testing8TestCase22TestReportableDisabledEPKNS_8TestInfoE
FNDA:0,_ZN7testing12TestPropertyC2ERKNSt7__cxx1112basic_stringIcSt11char_traitsIcESaIcEEES8_
FNDA:8,_ZN7testing22EmptyTestEventListener24OnEnvironmentsSetUpStartERKNS_8UnitTestE
FNDA:8,_ZN7testing15AssertionResultC2IbEERKT_PNS_8internal8EnableIfIXntsrNS5_21ImplicitlyConvertibleIS2_S0_EE5valueEE4typeE
FNDA:0,_ZN7testing15AssertionResultlsIA3_cEERS0_RKT_
FNDA:16,_ZNK7testing8TestCase6FailedEv
FNDA:56,_ZNK7testing8TestInfo13is_reportableEv
FNDA:8,_ZN7testing8TestCase19ClearTestCaseResultEPS0_
FNDA:0,_ZN7testing17TestEventListenerD0Ev
FNDA:8,_Z13RUN_ALL_TESTSv
FNDA:8,_ZNK7testing15AssertionResultcvbEv
FNDA:0,_ZN7testing10TestResult26increment_death_test_countEv
FNDA:0,_ZN7testing15AssertionResultlsINS_14TestPartResultEEERS0_RKT_
FNDA:0,_ZN7testing15AssertionResultlsIA2_cEERS0_RKT_
FNDA:40,_ZNK7testing8TestCase10should_runEv
FNDA:0,_ZN7testing8TestCase12TestDisabledEPKNS_8TestInfoE
FNDA:24,_ZN7testing8TestCase14test_info_listEv
FNDA:40,_ZN7testing8TestCase10TestFailedEPKNS_8TestInfoE
FNDA:160,_ZNK7testing8UnitTest4implEv
FNDA:0,_ZN7testing15AssertionResultlsIA11_cEERS0_RKT_
FNDA:8,_ZN7testing8TestCase19RunTearDownTestCaseEv
FNDA:0,_ZNK7testing12TestProperty5valueEv
FNDA:0,_ZN7testing15AssertionResultlsIA6_cEERS0_RKT_
FNDA:0,_ZN7testing15AssertionResultlsIA24_cEERS0_RKT_
FNDA:16,_ZNK7testing8TestInfo10type_paramEv
FNDA:0,_ZNK7testing8TestInfo4fileEv
FNDA:8,_ZN7testing4Test11DeleteSelf_Ev
FNDA:0,_ZN7testing15AssertionResultlsIA9_cEERS0_RKT_
FNDA:0,_ZN7testing15AssertionResultlsIA15_cEERS0_RKT_
FNDA:0,_ZNK7testing8TestInfo4lineEv
FNDA:40,_ZNK7testing8TestCase4nameEv
FNDA:8,_ZN7testing22EmptyTestEventListener15OnTestCaseStartERKNS_8TestCaseE
FNDA:0,_ZNK7testing15AssertionResult7messageEv
FNDA:8,_ZN7testing8TestCase11TestSkippedEPKNS_8TestInfoE
FNDA:0,_ZN7testing8TestInfo26increment_death_test_countEv
FNDA:0,_ZN7testing15AssertionResultlsIA7_cEERS0_RKT_
FNDA:0,_ZN7testing15AssertionResultlsIA12_cEERS0_RKT_
FNDA:0,_ZN7testing15AssertionResultlsIA17_cEERS0_RKT_
FNDA:0,_ZN7testing15AssertionResultlsIA29_cEERS0_RKT_
FNDA:0,_ZN7testing15AssertionResultlsINSt7__cxx1112basic_stringIwSt11char_traitsIwESaIwEEEEERS0_RKT_
FNDA:24,_ZN7testing17TestEventListenerD2Ev
FNDA:0,_ZNK7testing8TestCase6PassedEv
FNDA:0,_ZN7testing15AssertionResultlsIA14_cEERS0_RKT_
FNDA:0,_ZN7testing15AssertionResultlsIA13_cEERS0_RKT_
FNDA:0,_ZNK7testing12TestProperty3keyEv
FNDA:96,_ZNK7testing8TestInfo10should_runEv
FNDA:0,_ZN7testing15AssertionResultlsIA5_cEERS0_RKT_
FNDA:48,_ZNK7testing8TestInfo4nameEv
FNDA:0,_ZN7testing15AssertionResultlsIPKcEERS0_RKT_
FNDA:8,_ZN7testing8TestCase10TestPassedEPKNS_8TestInfoE
FNDA:8,_ZN7testing4Test13SetUpTestCaseEv
FNDA:8,_ZN7testing22EmptyTestEventListener25OnEnvironmentsTearDownEndERKNS_8UnitTestE
FNDA:32,_ZN7testing8TestCase13ShouldRunTestEPKNS_8TestInfoE
FNDA:16,_ZN7testing8TestCase14set_should_runEb
FNDA:8,_ZNK7testing8TestInfo19is_in_another_shardEv
FNDA:24,_ZN7testing8TestCase14TestReportableEPKNS_8TestInfoE
FNDA:0,_ZN7testing22EmptyTestEventListener16OnTestPartResultERKNS_14TestPartResultE
FNDA:0,_ZN7testing4Test5SetupEv
FNDA:0,_ZN7testing15AssertionResultlsINSt7__cxx1112basic_stringIcSt11char_traitsIcESaIcEEEEERS0_RKT_
FNDA:8,_ZN7testing4Test16TearDownTestCaseEv
FNDA:16,_ZNK7testing8TestCase12elapsed_timeEv
FNDA:0,_ZN7testing15AssertionResultlsINS_7MessageEEERS0_RKT_
FNDA:8,_ZNK7testing8TestCase10type_paramEv
FNDA:8,_ZN7testing22EmptyTestEventListener11OnTestStartERKNS_8TestInfoE
FNDA:16,_ZNK7testing10TestResult6PassedEv
FNDA:8,_ZN7testing22EmptyTestEventListener18OnTestProgramStartERKNS_8UnitTestE
FNDA:8,_ZN7testing22EmptyTestEventListener20OnTestIterationStartERKNS_8UnitTestEi
FNDA:8,_ZN7testing22EmptyTestEventListener16OnTestProgramEndERKNS_8UnitTestE
FNDA:8,_ZN7testing22EmptyTestEventListener22OnEnvironmentsSetUpEndERKNS_8UnitTestE
FNDA:0,_ZN7testing8internal12AssertHelper16AssertHelperDataC2ENS_14TestPartResult4TypeEPKciS6_
FNDA:8,_ZNK7testing8TestCase18ad_hoc_test_resultEv
FNDA:0,_ZNK7testing15AssertionResult15failure_messageEv
FNDA:8,_ZNK7testing8TestInfo11value_paramEv
FNDA:8,_ZN7testing10TestResult16set_elapsed_timeEx
FNDA:8,_ZN7testing22EmptyTestEventListener13OnTestCaseEndERKNS_8TestCaseE
FNDA:0,_ZNK7testing10TestResult16death_test_countEv
FNDA:8,_ZN7testing22EmptyTestEventListener27OnEnvironmentsTearDownStartERKNS_8UnitTestE
FNDA:184,_ZN7testing8UnitTest4implEv
FNDA:0,_ZN7testing22EmptyTestEventListener18OnTestIterationEndERKNS_8UnitTestEi
FNDA:24,_ZNK7testing8TestInfo14test_case_nameEv
FNDA:0,_ZN7testing15AssertionResult13AppendMessageERKNS_7MessageE
FNDA:0,_ZN7testing15AssertionResultlsIA16_cEERS0_RKT_
FNDA:8,_ZN7testing8TestCase16RunSetUpTestCaseEv
FNF:91
FNH:50
DA:301,8
DA:307,8
DA:320,8
DA:329,0
DA:330,0
DA:334,0
DA:337,0
DA:338,0
DA:339,0
DA:352,0
DA:353,0
DA:354,0
DA:355,0
DA:429,8
DA:437,8
DA:496,8
DA:517,0
DA:534,0
DA:535,0
DA:536,0
DA:539,0
DA:540,0
DA:544,0
DA:545,0
DA:549,0
DA:550,0
DA:551,0
DA:582,16
DA:597,16
DA:630,8
DA:651,0
DA:654,0
DA:697,24
DA:700,48
DA:704,16
DA:705,16
DA:706,16
DA:711,8
DA:712,8
DA:713,8
DA:717,0
DA:720,0
DA:723,8
DA:741,96
DA:744,56
DA:747,56
DA:751,88
DA:784,0
DA:785,0
DA:792,8
DA:793,8
DA:794,8
DA:847,40
DA:851,8
DA:852,8
DA:853,8
DA:857,40
DA:884,0
DA:887,16
DA:890,16
DA:898,8
DA:905,24
DA:908,8
DA:909,8
DA:917,16
DA:927,8
DA:928,8
DA:929,8
DA:936,8
DA:940,8
DA:943,8
DA:944,8
DA:948,8
DA:949,8
DA:953,40
DA:954,40
DA:959,24
DA:960,24
DA:964,0
DA:965,0
DA:969,24
DA:970,24
DA:974,32
DA:975,32
DA:1059,24
DA:1114,8
DA:1115,8
DA:1116,8
DA:1117,8
DA:1118,8
DA:1119,8
DA:1120,8
DA:1121,0
DA:1122,8
DA:1123,8
DA:1124,8
DA:1125,8
DA:1126,0
DA:1127,0
DA:1128,8
DA:1356,184
DA:1357,160
DA:1759,0
DA:1763,0
DA:2369,8
DA:2370,8
LF:106
LH:71
end_of_record
TN:
SF:/opt/ros/foxy/src/gtest_vendor/include/gtest/internal/gtest-death-test-internal.h
FN:86,_ZN7testing8internal9DeathTestD0Ev
FN:86,_ZN7testing8internal9DeathTestD2Ev
FN:148,_ZN7testing8internal16DeathTestFactoryD0Ev
FN:148,_ZN7testing8internal16DeathTestFactoryD2Ev
FN:274,_ZN7testing8internal24InternalRunDeathTestFlagC2ERKNSt7__cxx1112basic_stringIcSt11char_traitsIcESaIcEEEiii
FN:281,_ZN7testing8internal24InternalRunDeathTestFlagD2Ev
FN:286,_ZNK7testing8internal24InternalRunDeathTestFlag4fileB5cxx11Ev
FN:287,_ZNK7testing8internal24InternalRunDeathTestFlag4lineEv
FN:288,_ZNK7testing8internal24InternalRunDeathTestFlag5indexEv
FN:289,_ZNK7testing8internal24InternalRunDeathTestFlag8write_fdEv
FNDA:0,_ZN7testing8internal24InternalRunDeathTestFlagC2ERKNSt7__cxx1112basic_stringIcSt11char_traitsIcESaIcEEEiii
FNDA:0,_ZNK7testing8internal24InternalRunDeathTestFlag4fileB5cxx11Ev
FNDA:0,_ZN7testing8internal9DeathTestD0Ev
FNDA:0,_ZN7testing8internal16DeathTestFactoryD0Ev
FNDA:0,_ZNK7testing8internal24InternalRunDeathTestFlag8write_fdEv
FNDA:0,_ZNK7testing8internal24InternalRunDeathTestFlag5indexEv
FNDA:0,_ZN7testing8internal24InternalRunDeathTestFlagD2Ev
FNDA:0,_ZN7testing8internal9DeathTestD2Ev
FNDA:8,_ZN7testing8internal16DeathTestFactoryD2Ev
FNDA:0,_ZNK7testing8internal24InternalRunDeathTestFlag4lineEv
FNF:10
FNH:1
DA:86,0
DA:148,8
DA:274,0
DA:278,0
DA:279,0
DA:281,0
DA:282,0
DA:283,0
DA:284,0
DA:286,0
DA:287,0
DA:288,0
DA:289,0
LF:13
LH:1
end_of_record
TN:
SF:/opt/ros/foxy/src/gtest_vendor/include/gtest/internal/gtest-filepath.h
FN:64,_ZN7testing8internal8FilePathC2Ev
FN:65,_ZN7testing8internal8FilePathC2ERKS1_
FN:67,_ZN7testing8internal8FilePathC2ERKNSt7__cxx1112basic_stringIcSt11char_traitsIcESaIcEEE
FN:71,_ZN7testing8internal8FilePathaSERKS1_
FN:76,_ZN7testing8internal8FilePath3SetERKS1_
FN:80,_ZNK7testing8internal8FilePath6stringB5cxx11Ev
FN:81,_ZNK7testing8internal8FilePath5c_strEv
FN:114,_ZNK7testing8internal8FilePath7IsEmptyEv
FNDA:0,_ZN7testing8internal8FilePathaSERKS1_
FNDA:16,_ZNK7testing8internal8FilePath7IsEmptyEv
FNDA:32,_ZNK7testing8internal8FilePath5c_strEv
FNDA:8,_ZN7testing8internal8FilePathC2Ev
FNDA:0,_ZN7testing8internal8FilePathC2ERKS1_
FNDA:32,_ZN7testing8internal8FilePathC2ERKNSt7__cxx1112basic_stringIcSt11char_traitsIcESaIcEEE
FNDA:8,_ZNK7testing8internal8FilePath6stringB5cxx11Ev
FNDA:8,_ZN7testing8internal8FilePath3SetERKS1_
FNF:8
FNH:6
DA:64,8
DA:65,0
DA:67,32
DA:68,32
DA:69,32
DA:71,0
DA:72,0
DA:73,0
DA:76,8
DA:77,8
DA:78,8
DA:80,8
DA:81,32
DA:114,16
LF:14
LH:10
end_of_record
TN:
SF:/opt/ros/foxy/src/gtest_vendor/include/gtest/internal/gtest-internal.h
FN:298,_ZN7testing8internal13FloatingPointIdEC2ERKd
FN:298,_ZN7testing8internal13FloatingPointIfEC2ERKf
FN:325,_ZNK7testing8internal13FloatingPointIdE13exponent_bitsEv
FN:325,_ZNK7testing8internal13FloatingPointIfE13exponent_bitsEv
FN:328,_ZNK7testing8internal13FloatingPointIdE13fraction_bitsEv
FN:328,_ZNK7testing8internal13FloatingPointIfE13fraction_bitsEv
FN:334,_ZNK7testing8internal13FloatingPointIfE6is_nanEv
FN:334,_ZNK7testing8internal13FloatingPointIdE6is_nanEv
FN:346,_ZNK7testing8internal13FloatingPointIdE12AlmostEqualsERKS2_
FN:346,_ZNK7testing8internal13FloatingPointIfE12AlmostEqualsERKS2_
FN:377,_ZN7testing8internal13FloatingPointIfE24SignAndMagnitudeToBiasedERKj
FN:377,_ZN7testing8internal13FloatingPointIdE24SignAndMagnitudeToBiasedERKy
FN:389,_ZN7testing8internal13FloatingPointIdE38DistanceBetweenSignAndMagnitudeNumbersERKyS4_
FN:389,_ZN7testing8internal13FloatingPointIfE38DistanceBetweenSignAndMagnitudeNumbersERKjS4_
FN:435,_ZN7testing8internal9GetTypeIdINS_4TestEEEPKvv
FN:454,_ZN7testing8internal15TestFactoryBaseD2Ev
FN:454,_ZN7testing8internal15TestFactoryBaseD0Ev
FN:461,_ZN7testing8internal15TestFactoryBaseC2Ev
FN:472,_ZN7testing8internal15TestFactoryImplI31SanityCheck_BasicAssertion_TestE10CreateTestEv
FN:493,_ZN7testing8internal12CodeLocationC2ERKNSt7__cxx1112basic_stringIcSt11char_traitsIcESaIcEEEi
FN:588,_ZN7testing8internal9SkipCommaEPKc
FN:599,_ZN7testing8internal19GetPrefixUntilCommaB5cxx11EPKc
FN:772,_ZN7testing8internal11AlwaysFalseEv
FN:792,_ZN7testing8internal6RandomC2Ej
FN:794,_ZN7testing8internal6Random6ReseedEj
FNDA:0,_ZNK7testing8internal13FloatingPointIfE13fraction_bitsEv
FNDA:0,_ZNK7testing8internal13FloatingPointIfE13exponent_bitsEv
FNDA:0,_ZN7testing8internal13FloatingPointIfE38DistanceBetweenSignAndMagnitudeNumbersERKjS4_
FNDA:0,_ZN7testing8internal19GetPrefixUntilCommaB5cxx11EPKc
FNDA:8,_ZN7testing8internal12CodeLocationC2ERKNSt7__cxx1112basic_stringIcSt11char_traitsIcESaIcEEEi
FNDA:16,_ZN7testing8internal9GetTypeIdINS_4TestEEEPKvv
FNDA:0,_ZN7testing8internal13FloatingPointIdE24SignAndMagnitudeToBiasedERKy
FNDA:0,_ZN7testing8internal6Random6ReseedEj
FNDA:0,_ZN7testing8internal11AlwaysFalseEv
FNDA:0,_ZN7testing8internal13FloatingPointIfEC2ERKf
FNDA:0,_ZN7testing8internal13FloatingPointIdEC2ERKd
FNDA:0,_ZNK7testing8internal13FloatingPointIdE13exponent_bitsEv
FNDA:0,_ZN7testing8internal15TestFactoryBaseD0Ev
FNDA:0,_ZNK7testing8internal13FloatingPointIdE6is_nanEv
FNDA:8,_ZN7testing8internal6RandomC2Ej
FNDA:8,_ZN7testing8internal15TestFactoryBaseD2Ev
FNDA:0,_ZNK7testing8internal13FloatingPointIfE6is_nanEv
FNDA:0,_ZNK7testing8internal13FloatingPointIfE12AlmostEqualsERKS2_
FNDA:8,_ZN7testing8internal15TestFactoryImplI31SanityCheck_BasicAssertion_TestE10CreateTestEv
FNDA:0,_ZNK7testing8internal13FloatingPointIdE12AlmostEqualsERKS2_
FNDA:0,_ZN7testing8internal9SkipCommaEPKc
FNDA:0,_ZNK7testing8internal13FloatingPointIdE13fraction_bitsEv
FNDA:0,_ZN7testing8internal13FloatingPointIdE38DistanceBetweenSignAndMagnitudeNumbersERKyS4_
FNDA:8,_ZN7testing8internal15TestFactoryBaseC2Ev
FNDA:0,_ZN7testing8internal13FloatingPointIfE24SignAndMagnitudeToBiasedERKj
FNF:25
FNH:6
DA:298,0
DA:325,0
DA:328,0
DA:334,0
DA:337,0
DA:346,0
DA:349,0
DA:351,0
DA:352,0
DA:377,0
DA:378,0
DA:380,0
DA:383,0
DA:389,0
DA:391,0
DA:392,0
DA:393,0
DA:435,16
DA:440,16
DA:454,8
DA:461,8
DA:472,8
DA:493,8
DA:494,8
DA:588,0
DA:589,0
DA:590,0
DA:591,0
DA:593,0
DA:594,0
DA:599,0
DA:600,0
DA:601,0
DA:772,0
DA:792,8
DA:794,0
LF:36
LH:8
end_of_record
TN:
SF:/opt/ros/foxy/src/gtest_vendor/include/gtest/internal/gtest-param-util.h
FN:663,_ZN7testing8internal29ParameterizedTestCaseRegistryC2Ev
FN:664,_ZN7testing8internal29ParameterizedTestCaseRegistryD2Ev
FN:704,_ZN7testing8internal29ParameterizedTestCaseRegistry13RegisterTestsEv
FNDA:8,_ZN7testing8internal29ParameterizedTestCaseRegistry13RegisterTestsEv
FNDA:8,_ZN7testing8internal29ParameterizedTestCaseRegistryC2Ev
FNDA:8,_ZN7testing8internal29ParameterizedTestCaseRegistryD2Ev
FNF:3
FNH:3
DA:663,8
DA:664,8
DA:665,8
DA:666,8
DA:667,0
DA:669,8
DA:704,8
DA:705,8
DA:706,8
DA:707,0
DA:709,8
LF:11
LH:9
end_of_record
TN:
SF:/opt/ros/foxy/src/gtest_vendor/include/gtest/internal/gtest-port.h
FN:1121,_ZN7testing8internal8GTestLog9GetStreamEv
FN:1135,_ZN7testing8internal11LogToStderrEv
FN:1136,_ZN7testing8internal12FlushInfoLogEv
FN:1227,_ZN7testing8internal13ImplicitCast_IPKvEET_S4_
FN:1276,_ZN7testing8internal27CheckedDowncastToActualTypeINS0_11ThreadLocalIPNS_31TestPartResultReporterInterfaceEE11ValueHolderENS0_26ThreadLocalValueHolderBaseEEEPT_PT0_
FN:1276,_ZN7testing8internal27CheckedDowncastToActualTypeINS0_11ThreadLocalISt6vectorINS0_9TraceInfoESaIS4_EEE11ValueHolderENS0_26ThreadLocalValueHolderBaseEEEPT_PT0_
FN:1810,_ZN7testing8internal9MutexBase4LockEv
FN:1817,_ZN7testing8internal9MutexBase6UnlockEv
FN:1867,_ZN7testing8internal5MutexC2Ev
FN:1871,_ZN7testing8internal5MutexD2Ev
FN:1886,_ZN7testing8internal14GTestMutexLockC2EPNS0_9MutexBaseE
FN:1889,_ZN7testing8internal14GTestMutexLockD2Ev
FN:1907,_ZN7testing8internal26ThreadLocalValueHolderBaseD0Ev
FN:1907,_ZN7testing8internal26ThreadLocalValueHolderBaseD2Ev
FN:1912,DeleteThreadLocalValue
FN:1920,_ZN7testing8internal11ThreadLocalISt6vectorINS0_9TraceInfoESaIS3_EEEC2Ev
FN:1922,_ZN7testing8internal11ThreadLocalIPNS_31TestPartResultReporterInterfaceEEC2ERKS3_
FN:1926,_ZN7testing8internal11ThreadLocalISt6vectorINS0_9TraceInfoESaIS3_EEED2Ev
FN:1926,_ZN7testing8internal11ThreadLocalIPNS_31TestPartResultReporterInterfaceEED2Ev
FN:1935,_ZN7testing8internal11ThreadLocalIPNS_31TestPartResultReporterInterfaceEE7pointerEv
FN:1935,_ZN7testing8internal11ThreadLocalISt6vectorINS0_9TraceInfoESaIS3_EEE7pointerEv
FN:1936,_ZNK7testing8internal11ThreadLocalIPNS_31TestPartResultReporterInterfaceEE7pointerEv
FN:1937,_ZNK7testing8internal11ThreadLocalIPNS_31TestPartResultReporterInterfaceEE3getEv
FN:1938,_ZN7testing8internal11ThreadLocalIPNS_31TestPartResultReporterInterfaceEE3setERKS3_
FN:1944,_ZN7testing8internal11ThreadLocalISt6vectorINS0_9TraceInfoESaIS3_EEE11ValueHolderC2Ev
FN:1945,_ZN7testing8internal11ThreadLocalIPNS_31TestPartResultReporterInterfaceEE11ValueHolderC2ERKS3_
FN:1947,_ZN7testing8internal11ThreadLocalISt6vectorINS0_9TraceInfoESaIS3_EEE11ValueHolder7pointerEv
FN:1947,_ZN7testing8internal11ThreadLocalIPNS_31TestPartResultReporterInterfaceEE11ValueHolder7pointerEv
FN:1954,_ZN7testing8internal11ThreadLocalISt6vectorINS0_9TraceInfoESaIS3_EEE9CreateKeyEv
FN:1954,_ZN7testing8internal11ThreadLocalIPNS_31TestPartResultReporterInterfaceEE9CreateKeyEv
FN:1963,_ZNK7testing8internal11ThreadLocalISt6vectorINS0_9TraceInfoESaIS3_EEE16GetOrCreateValueEv
FN:1963,_ZNK7testing8internal11ThreadLocalIPNS_31TestPartResultReporterInterfaceEE16GetOrCreateValueEv
FN:1978,_ZN7testing8internal11ThreadLocalIPNS_31TestPartResultReporterInterfaceEE18ValueHolderFactoryC2Ev
FN:1978,_ZN7testing8internal11ThreadLocalISt6vectorINS0_9TraceInfoESaIS3_EEE18ValueHolderFactoryC2Ev
FN:1979,_ZN7testing8internal11ThreadLocalIPNS_31TestPartResultReporterInterfaceEE18ValueHolderFactoryD0Ev
FN:1979,_ZN7testing8internal11ThreadLocalISt6vectorINS0_9TraceInfoESaIS3_EEE18ValueHolderFactoryD2Ev
FN:1979,_ZN7testing8internal11ThreadLocalIPNS_31TestPartResultReporterInterfaceEE18ValueHolderFactoryD2Ev
FN:1979,_ZN7testing8internal11ThreadLocalISt6vectorINS0_9TraceInfoESaIS3_EEE18ValueHolderFactoryD0Ev
FN:1988,_ZN7testing8internal11ThreadLocalISt6vectorINS0_9TraceInfoESaIS3_EEE25DefaultValueHolderFactoryC2Ev
FN:1989,_ZNK7testing8internal11ThreadLocalISt6vectorINS0_9TraceInfoESaIS3_EEE25DefaultValueHolderFactory13MakeNewHolderEv
FN:1997,_ZN7testing8internal11ThreadLocalIPNS_31TestPartResultReporterInterfaceEE26InstanceValueHolderFactoryC2ERKS3_
FN:1998,_ZNK7testing8internal11ThreadLocalIPNS_31TestPartResultReporterInterfaceEE26InstanceValueHolderFactory13MakeNewHolderEv
FN:2154,_ZN7testing8internal7IsDigitEc
FN:2160,_ZN7testing8internal7IsSpaceEc
FN:2166,_ZN7testing8internal8IsXDigitEc
FN:2169,_ZN7testing8internal8IsXDigitEw
FN:2177,_ZN7testing8internal7ToUpperEc
FN:2181,_ZN7testing8internal19StripTrailingSpacesENSt7__cxx1112basic_stringIcSt11char_traitsIcESaIcEEE
FN:2237,_ZN7testing8internal5posix6FileNoEP8_IO_FILE
FN:2238,_ZN7testing8internal5posix6IsATTYEi
FN:2239,_ZN7testing8internal5posix4StatEPKcP4stat
FN:2240,_ZN7testing8internal5posix10StrCaseCmpEPKcS3_
FN:2243,_ZN7testing8internal5posix6StrDupEPKc
FN:2245,_ZN7testing8internal5posix5IsDirERK4stat
FN:2264,_ZN7testing8internal5posix5FOpenEPKcS3_
FN:2271,_ZN7testing8internal5posix6FDOpenEiPKc
FN:2273,_ZN7testing8internal5posix6FCloseEP8_IO_FILE
FN:2275,_ZN7testing8internal5posix4ReadEiPvj
FN:2278,_ZN7testing8internal5posix5WriteEiPKvj
FN:2281,_ZN7testing8internal5posix5CloseEi
FN:2282,_ZN7testing8internal5posix8StrErrorEi
FN:2284,_ZN7testing8internal5posix6GetEnvEPKc
FN:2307,_ZN7testing8internal5posix5AbortEv
FNDA:0,_ZN7testing8internal5posix8StrErrorEi
FNDA:8,_ZN7testing8internal11ThreadLocalISt6vectorINS0_9TraceInfoESaIS3_EEE18ValueHolderFactoryC2Ev
FNDA:0,_ZN7testing8internal11ThreadLocalISt6vectorINS0_9TraceInfoESaIS3_EEE7pointerEv
FNDA:8,_ZN7testing8internal5posix5FOpenEPKcS3_
FNDA:0,_ZN7testing8internal11ThreadLocalISt6vectorINS0_9TraceInfoESaIS3_EEE18ValueHolderFactoryD0Ev
FNDA:0,_ZN7testing8internal12FlushInfoLogEv
FNDA:0,_ZN7testing8internal11LogToStderrEv
FNDA:0,_ZN7testing8internal8IsXDigitEc
FNDA:0,_ZN7testing8internal11ThreadLocalIPNS_31TestPartResultReporterInterfaceEE11ValueHolder7pointerEv
FNDA:8,_ZN7testing8internal11ThreadLocalIPNS_31TestPartResultReporterInterfaceEE18ValueHolderFactoryD2Ev
FNDA:8,_ZN7testing8internal11ThreadLocalIPNS_31TestPartResultReporterInterfaceEED2Ev
FNDA:0,_ZN7testing8internal9MutexBase4LockEv
FNDA:0,_ZN7testing8internal5posix5CloseEi
FNDA:8,_ZN7testing8internal11ThreadLocalIPNS_31TestPartResultReporterInterfaceEE26InstanceValueHolderFactoryC2ERKS3_
FNDA:0,_ZN7testing8internal8IsXDigitEw
FNDA:0,_ZN7testing8internal14GTestMutexLockD2Ev
FNDA:0,_ZN7testing8internal5posix6FCloseEP8_IO_FILE
FNDA:8,_ZN7testing8internal11ThreadLocalISt6vectorINS0_9TraceInfoESaIS3_EEE25DefaultValueHolderFactoryC2Ev
FNDA:0,_ZNK7testing8internal11ThreadLocalIPNS_31TestPartResultReporterInterfaceEE26InstanceValueHolderFactory13MakeNewHolderEv
FNDA:8,_ZN7testing8internal11ThreadLocalISt6vectorINS0_9TraceInfoESaIS3_EEE18ValueHolderFactoryD2Ev
FNDA:0,_ZN7testing8internal5posix4ReadEiPvj
FNDA:0,_ZN7testing8internal27CheckedDowncastToActualTypeINS0_11ThreadLocalISt6vectorINS0_9TraceInfoESaIS4_EEE11ValueHolderENS0_26ThreadLocalValueHolderBaseEEEPT_PT0_
FNDA:8,_ZN7testing8internal11ThreadLocalIPNS_31TestPartResultReporterInterfaceEE9CreateKeyEv
FNDA:8,_ZN7testing8internal5posix10StrCaseCmpEPKcS3_
FNDA:0,_ZN7testing8internal11ThreadLocalISt6vectorINS0_9TraceInfoESaIS3_EEE11ValueHolder7pointerEv
FNDA:0,_ZNK7testing8internal11ThreadLocalIPNS_31TestPartResultReporterInterfaceEE3getEv
FNDA:8,_ZN7testing8internal5posix4StatEPKcP4stat
FNDA:8,_ZN7testing8internal11ThreadLocalIPNS_31TestPartResultReporterInterfaceEEC2ERKS3_
FNDA:0,_ZN7testing8internal5posix5WriteEiPKvj
FNDA:216,_ZN7testing8internal5posix6GetEnvEPKc
FNDA:8,_ZN7testing8internal5posix6IsATTYEi
FNDA:0,_ZN7testing8internal13ImplicitCast_IPKvEET_S4_
FNDA:0,_ZN7testing8internal11ThreadLocalIPNS_31TestPartResultReporterInterfaceEE3setERKS3_
FNDA:0,_ZN7testing8internal11ThreadLocalIPNS_31TestPartResultReporterInterfaceEE11ValueHolderC2ERKS3_
FNDA:16,DeleteThreadLocalValue
FNDA:8,_ZN7testing8internal11ThreadLocalISt6vectorINS0_9TraceInfoESaIS3_EEEC2Ev
FNDA:0,_ZN7testing8internal9MutexBase6UnlockEv
FNDA:0,_ZN7testing8internal27CheckedDowncastToActualTypeINS0_11ThreadLocalIPNS_31TestPartResultReporterInterfaceEE11ValueHolderENS0_26ThreadLocalValueHolderBaseEEEPT_PT0_
FNDA:40,_ZN7testing8internal5MutexC2Ev
FNDA:0,_ZN7testing8internal7IsDigitEc
FNDA:8,_ZN7testing8internal11ThreadLocalISt6vectorINS0_9TraceInfoESaIS3_EEE9CreateKeyEv
FNDA:0,_ZN7testing8internal5posix6StrDupEPKc
FNDA:0,_ZN7testing8internal19StripTrailingSpacesENSt7__cxx1112basic_stringIcSt11char_traitsIcESaIcEEE
FNDA:0,_ZNK7testing8internal11ThreadLocalIPNS_31TestPartResultReporterInterfaceEE7pointerEv
FNDA:0,_ZN7testing8internal11ThreadLocalIPNS_31TestPartResultReporterInterfaceEE7pointerEv
FNDA:40,_ZN7testing8internal5MutexD2Ev
FNDA:0,_ZNK7testing8internal11ThreadLocalISt6vectorINS0_9TraceInfoESaIS3_EEE25DefaultValueHolderFactory13MakeNewHolderEv
FNDA:0,_ZN7testing8internal5posix5AbortEv
FNDA:0,_ZN7testing8internal7IsSpaceEc
FNDA:0,_ZNK7testing8internal11ThreadLocalIPNS_31TestPartResultReporterInterfaceEE16GetOrCreateValueEv
FNDA:8,_ZN7testing8internal11ThreadLocalISt6vectorINS0_9TraceInfoESaIS3_EEED2Ev
FNDA:0,_ZN7testing8internal26ThreadLocalValueHolderBaseD0Ev
FNDA:0,_ZN7testing8internal5posix6FDOpenEiPKc
FNDA:0,_ZN7testing8internal26ThreadLocalValueHolderBaseD2Ev
FNDA:0,_ZN7testing8internal14GTestMutexLockC2EPNS0_9MutexBaseE
FNDA:8,_ZN7testing8internal11ThreadLocalIPNS_31TestPartResultReporterInterfaceEE18ValueHolderFactoryC2Ev
FNDA:0,_ZNK7testing8internal11ThreadLocalISt6vectorINS0_9TraceInfoESaIS3_EEE16GetOrCreateValueEv
FNDA:8,_ZN7testing8internal5posix5IsDirERK4stat
FNDA:2768,_ZN7testing8internal7ToUpperEc
FNDA:8,_ZN7testing8internal5posix6FileNoEP8_IO_FILE
FNDA:0,_ZN7testing8internal11ThreadLocalIPNS_31TestPartResultReporterInterfaceEE18ValueHolderFactoryD0Ev
FNDA:0,_ZN7testing8internal8GTestLog9GetStreamEv
FNDA:0,_ZN7testing8internal11ThreadLocalISt6vectorINS0_9TraceInfoESaIS3_EEE11ValueHolderC2Ev
FNF:63
FNH:23
DA:1121,0
DA:1135,0
DA:1136,0
DA:1227,0
DA:1276,0
DA:1278,0
DA:1284,0
DA:1810,0
DA:1811,0
DA:1812,0
DA:1813,0
DA:1814,0
DA:1817,0
DA:1822,0
DA:1823,0
DA:1824,0
DA:1867,40
DA:1868,40
DA:1869,40
DA:1870,40
DA:1871,80
DA:1872,40
DA:1873,40
DA:1886,0
DA:1887,0
DA:1889,0
DA:1907,0
DA:1912,16
DA:1913,16
DA:1914,16
DA:1920,8
DA:1921,8
DA:1922,8
DA:1923,8
DA:1924,8
DA:1926,16
DA:1928,16
DA:1932,16
DA:1933,16
DA:1935,0
DA:1936,0
DA:1937,0
DA:1938,0
DA:1944,0
DA:1945,0
DA:1947,0
DA:1954,16
DA:1958,16
DA:1960,16
DA:1963,0
DA:1965,0
DA:1966,0
DA:1967,0
DA:1970,0
DA:1971,0
DA:1972,0
DA:1973,0
DA:1978,16
DA:1979,16
DA:1988,8
DA:1989,0
DA:1997,8
DA:1998,0
DA:1999,0
DA:2154,0
DA:2155,0
DA:2160,0
DA:2161,0
DA:2166,0
DA:2167,0
DA:2169,0
DA:2170,0
DA:2171,0
DA:2177,2768
DA:2178,2768
DA:2181,0
DA:2182,0
DA:2183,0
DA:2184,0
DA:2185,0
DA:2237,8
DA:2238,8
DA:2239,8
DA:2240,8
DA:2241,8
DA:2243,0
DA:2245,8
DA:2264,8
DA:2265,8
DA:2271,0
DA:2273,0
DA:2275,0
DA:2276,0
DA:2278,0
DA:2279,0
DA:2281,0
DA:2282,0
DA:2284,216
DA:2295,216
DA:2307,0
LF:100
LH:38
end_of_record
TN:
SF:/opt/ros/foxy/src/gtest_vendor/src/gtest-death-test.cc
FN:144,_ZN7testing8internal16InDeathTestChildEv
FN:163,_ZN7testing14ExitedWithCodeC2Ei
FN:167,_ZNK7testing14ExitedWithCodeclEi
FN:181,_ZN7testing14KilledBySignalC2Ei
FN:185,_ZNK7testing14KilledBySignalclEi
FN:204,_ZN7testing8internalL11ExitSummaryEi
FN:230,_ZN7testing8internal20ExitedUnsuccessfullyEi
FN:239,_ZN7testing8internalL22DeathTestThreadWarningEm
FN:286,_ZN7testing8internalL14DeathTestAbortERKNSt7__cxx1112basic_stringIcSt11char_traitsIcESaIcEEE
FN:339,_ZN7testing8internal23GetLastErrnoDescriptionB5cxx11Ev
FN:347,_ZN7testing8internalL21FailFromInternalErrorEi
FN:370,_ZN7testing8internal9DeathTestC2Ev
FN:380,_ZN7testing8internal9DeathTest6CreateEPKcNS_7MatcherIRKNSt7__cxx1112basic_stringIcSt11char_traitsIcESaIcEEEEES3_iPPS1_
FN:387,_ZN7testing8internal9DeathTest11LastMessageEv
FN:391,_ZN7testing8internal9DeathTest27set_last_death_test_messageERKNSt7__cxx1112basic_stringIcSt11char_traitsIcESaIcEEE
FN:400,_ZN7testing8internal13DeathTestImplC2EPKcNS_7MatcherIRKNSt7__cxx1112basic_stringIcSt11char_traitsIcESaIcEEEEE
FN:410,_ZN7testing8internal13DeathTestImplD0Ev
FN:410,_ZN7testing8internal13DeathTestImplD2Ev
FN:415,_ZNK7testing8internal13DeathTestImpl9statementEv
FN:416,_ZNK7testing8internal13DeathTestImpl7spawnedEv
FN:417,_ZN7testing8internal13DeathTestImpl11set_spawnedEb
FN:418,_ZNK7testing8internal13DeathTestImpl6statusEv
FN:419,_ZN7testing8internal13DeathTestImpl10set_statusEi
FN:420,_ZNK7testing8internal13DeathTestImpl7outcomeEv
FN:421,_ZN7testing8internal13DeathTestImpl11set_outcomeENS0_16DeathTestOutcomeE
FN:422,_ZNK7testing8internal13DeathTestImpl7read_fdEv
FN:423,_ZN7testing8internal13DeathTestImpl11set_read_fdEi
FN:424,_ZNK7testing8internal13DeathTestImpl8write_fdEv
FN:425,_ZN7testing8internal13DeathTestImpl12set_write_fdEi
FN:462,_ZN7testing8internal13DeathTestImpl26ReadAndInterpretStatusByteEv
FN:503,_ZN7testing8internal13DeathTestImpl12GetErrorLogsB5cxx11Ev
FN:511,_ZN7testing8internal13DeathTestImpl5AbortENS0_9DeathTest11AbortReasonE
FN:534,_ZN7testing8internalL21FormatDeathTestOutputERKNSt7__cxx1112basic_stringIcSt11char_traitsIcESaIcEEE
FN:570,_ZN7testing8internal13DeathTestImpl6PassedEb
FN:1071,_ZN7testing8internal16ForkingDeathTest13set_child_pidEi
FN:1079,_ZN7testing8internal16ForkingDeathTestC2EPKcNS_7MatcherIRKNSt7__cxx1112basic_stringIcSt11char_traitsIcESaIcEEEEE
FN:1086,_ZN7testing8internal16ForkingDeathTest4WaitEv
FN:1102,_ZN7testing8internal15NoExecDeathTestC2EPKcNS_7MatcherIRKNSt7__cxx1112basic_stringIcSt11char_traitsIcESaIcEEEEE
FN:1109,_ZN7testing8internal15NoExecDeathTest10AssumeRoleEv
FN:1157,_ZN7testing8internal13ExecDeathTestC2EPKcNS_7MatcherIRKNSt7__cxx1112basic_stringIcSt11char_traitsIcESaIcEEEEES3_i
FN:1165,_ZN7testing8internal13ExecDeathTest32GetArgvsForDeathTestChildProcessB5cxx11Ev
FN:1183,_ZN7testing8internal9ArgumentsC2Ev
FN:1185,_ZN7testing8internal9ArgumentsD2Ev
FN:1191,_ZN7testing8internal9Arguments11AddArgumentEPKc
FN:1196,_ZN7testing8internal9Arguments12AddArgumentsINSt7__cxx1112basic_stringIcSt11char_traitsIcESaIcEEEEEvRKSt6vectorIT_SaISA_EE
FN:1203,_ZN7testing8internal9Arguments4ArgvEv
FN:1229,_ZN7testing8internal10GetEnvironEv
FN:1236,_ZN7testing8internalL22ExecDeathTestChildMainEPv
FN:1277,_ZN7testing8internalL21StackLowerThanAddressEPKvPb
FN:1284,_ZN7testing8internalL14StackGrowsDownEv
FN:1299,_ZN7testing8internalL23ExecDeathTestSpawnChildEPKPci
FN:1398,_ZN7testing8internal13ExecDeathTest10AssumeRoleEv
FN:1451,_ZN7testing8internal23DefaultDeathTestFactory6CreateEPKcNS_7MatcherIRKNSt7__cxx1112basic_stringIcSt11char_traitsIcESaIcEEEEES3_iPPNS0_9DeathTestE
FN:1582,_ZN7testing8internal29ParseInternalRunDeathTestFlagEv
FNDA:0,_ZNK7testing8internal13DeathTestImpl8write_fdEv
FNDA:0,_ZN7testing8internalL22DeathTestThreadWarningEm
FNDA:0,_ZNK7testing8internal13DeathTestImpl7spawnedEv
FNDA:0,_ZN7testing8internal13DeathTestImpl11set_read_fdEi
FNDA:0,_ZN7testing8internal16ForkingDeathTest13set_child_pidEi
FNDA:0,_ZN7testing8internal13DeathTestImpl26ReadAndInterpretStatusByteEv
FNDA:0,_ZNK7testing14KilledBySignalclEi
FNDA:0,_ZN7testing8internal9ArgumentsC2Ev
FNDA:0,_ZNK7testing8internal13DeathTestImpl7outcomeEv
FNDA:0,_ZN7testing8internal13DeathTestImpl11set_outcomeENS0_16DeathTestOutcomeE
FNDA:0,_ZN7testing8internal9Arguments12AddArgumentsINSt7__cxx1112basic_stringIcSt11char_traitsIcESaIcEEEEEvRKSt6vectorIT_SaISA_EE
FNDA:0,_ZN7testing8internalL11ExitSummaryEi
FNDA:0,_ZN7testing8internal13ExecDeathTest10AssumeRoleEv
FNDA:0,_ZN7testing8internal10GetEnvironEv
FNDA:0,_ZN7testing8internal9DeathTest6CreateEPKcNS_7MatcherIRKNSt7__cxx1112basic_stringIcSt11char_traitsIcESaIcEEEEES3_iPPS1_
FNDA:0,_ZN7testing14KilledBySignalC2Ei
FNDA:0,_ZN7testing8internal13DeathTestImpl5AbortENS0_9DeathTest11AbortReasonE
FNDA:0,_ZN7testing8internal13DeathTestImplC2EPKcNS_7MatcherIRKNSt7__cxx1112basic_stringIcSt11char_traitsIcESaIcEEEEE
FNDA:0,_ZN7testing8internal13DeathTestImplD0Ev
FNDA:0,_ZNK7testing8internal13DeathTestImpl7read_fdEv
FNDA:0,_ZNK7testing14ExitedWithCodeclEi
FNDA:0,_ZN7testing8internal16ForkingDeathTest4WaitEv
FNDA:0,_ZN7testing8internal16ForkingDeathTestC2EPKcNS_7MatcherIRKNSt7__cxx1112basic_stringIcSt11char_traitsIcESaIcEEEEE
FNDA:0,_ZN7testing8internal15NoExecDeathTest10AssumeRoleEv
FNDA:0,_ZN7testing8internal20ExitedUnsuccessfullyEi
FNDA:0,_ZN7testing8internal9Arguments11AddArgumentEPKc
FNDA:0,_ZN7testing8internal13DeathTestImpl6PassedEb
FNDA:8,_ZN7testing8internal29ParseInternalRunDeathTestFlagEv
FNDA:0,_ZN7testing8internal9DeathTest27set_last_death_test_messageERKNSt7__cxx1112basic_stringIcSt11char_traitsIcESaIcEEE
FNDA:0,_ZN7testing8internal9DeathTestC2Ev
FNDA:0,_ZN7testing8internal13ExecDeathTest32GetArgvsForDeathTestChildProcessB5cxx11Ev
FNDA:0,_ZNK7testing8internal13DeathTestImpl6statusEv
FNDA:0,_ZN7testing8internalL22ExecDeathTestChildMainEPv
FNDA:0,_ZN7testing8internal16InDeathTestChildEv
FNDA:0,_ZN7testing14ExitedWithCodeC2Ei
FNDA:0,_ZN7testing8internal13DeathTestImpl10set_statusEi
FNDA:0,_ZN7testing8internal13DeathTestImpl12set_write_fdEi
FNDA:0,_ZN7testing8internal13DeathTestImplD2Ev
FNDA:0,_ZNK7testing8internal13DeathTestImpl9statementEv
FNDA:0,_ZN7testing8internalL21StackLowerThanAddressEPKvPb
FNDA:0,_ZN7testing8internal9ArgumentsD2Ev
FNDA:0,_ZN7testing8internal23DefaultDeathTestFactory6CreateEPKcNS_7MatcherIRKNSt7__cxx1112basic_stringIcSt11char_traitsIcESaIcEEEEES3_iPPNS0_9DeathTestE
FNDA:0,_ZN7testing8internalL14StackGrowsDownEv
FNDA:0,_ZN7testing8internal13DeathTestImpl12GetErrorLogsB5cxx11Ev
FNDA:0,_ZN7testing8internalL23ExecDeathTestSpawnChildEPKPci
FNDA:0,_ZN7testing8internalL21FormatDeathTestOutputERKNSt7__cxx1112basic_stringIcSt11char_traitsIcESaIcEEE
FNDA:0,_ZN7testing8internal13DeathTestImpl11set_spawnedEb
FNDA:0,_ZN7testing8internal9DeathTest11LastMessageEv
FNDA:0,_ZN7testing8internal23GetLastErrnoDescriptionB5cxx11Ev
FNDA:0,_ZN7testing8internal15NoExecDeathTestC2EPKcNS_7MatcherIRKNSt7__cxx1112basic_stringIcSt11char_traitsIcESaIcEEEEE
FNDA:0,_ZN7testing8internalL21FailFromInternalErrorEi
FNDA:0,_ZN7testing8internal13ExecDeathTestC2EPKcNS_7MatcherIRKNSt7__cxx1112basic_stringIcSt11char_traitsIcESaIcEEEEES3_i
FNDA:0,_ZN7testing8internalL14DeathTestAbortERKNSt7__cxx1112basic_stringIcSt11char_traitsIcESaIcEEE
FNDA:0,_ZN7testing8internal9Arguments4ArgvEv
FNF:54
FNH:1
DA:144,0
DA:153,0
DA:154,0
DA:156,0
DA:163,0
DA:164,0
DA:167,0
DA:174,0
DA:181,0
DA:182,0
DA:185,0
DA:194,0
DA:204,0
DA:205,0
DA:213,0
DA:214,0
DA:215,0
DA:216,0
DA:219,0
DA:220,0
DA:225,0
DA:230,0
DA:231,0
DA:239,0
DA:240,0
DA:241,0
DA:242,0
DA:243,0
DA:244,0
DA:246,0
DA:250,0
DA:251,0
DA:252,0
DA:253,0
DA:286,0
DA:291,0
DA:292,0
DA:293,0
DA:294,0
DA:295,0
DA:296,0
DA:297,0
DA:299,0
DA:300,0
DA:301,0
DA:339,0
DA:340,0
DA:347,0
DA:348,0
DA:352,0
DA:353,0
DA:354,0
DA:355,0
DA:357,0
DA:359,0
DA:360,0
DA:362,0
DA:363,0
DA:364,0
DA:366,0
DA:370,0
DA:371,0
DA:372,0
DA:373,0
DA:376,0
DA:380,0
DA:383,0
DA:384,0
DA:387,0
DA:388,0
DA:391,0
DA:392,0
DA:393,0
DA:400,0
DA:401,0
DA:402,0
DA:407,0
DA:410,0
DA:415,0
DA:416,0
DA:417,0
DA:418,0
DA:419,0
DA:420,0
DA:421,0
DA:422,0
DA:423,0
DA:424,0
DA:425,0
DA:462,0
DA:470,0
DA:471,0
DA:472,0
DA:474,0
DA:475,0
DA:476,0
DA:477,0
DA:478,0
DA:479,0
DA:480,0
DA:481,0
DA:482,0
DA:483,0
DA:484,0
DA:485,0
DA:486,0
DA:487,0
DA:488,0
DA:489,0
DA:490,0
DA:491,0
DA:492,0
DA:493,0
DA:496,0
DA:497,0
DA:499,0
DA:500,0
DA:501,0
DA:503,0
DA:504,0
DA:511,0
DA:515,0
DA:516,0
DA:519,0
DA:528,0
DA:534,0
DA:535,0
DA:536,0
DA:537,0
DA:538,0
DA:539,0
DA:540,0
DA:541,0
DA:543,0
DA:544,0
DA:545,0
DA:546,0
DA:570,0
DA:571,0
DA:572,0
DA:574,0
DA:576,0
DA:577,0
DA:579,0
DA:580,0
DA:581,0
DA:582,0
DA:583,0
DA:584,0
DA:585,0
DA:586,0
DA:587,0
DA:588,0
DA:589,0
DA:590,0
DA:591,0
DA:592,0
DA:593,0
DA:594,0
DA:595,0
DA:596,0
DA:598,0
DA:599,0
DA:600,0
DA:601,0
DA:602,0
DA:603,0
DA:606,0
DA:607,0
DA:608,0
DA:610,0
DA:611,0
DA:613,0
DA:614,0
DA:617,0
DA:618,0
DA:1071,0
DA:1079,0
DA:1080,0
DA:1081,0
DA:1086,0
DA:1087,0
DA:1088,0
DA:1090,0
DA:1093,0
DA:1094,0
DA:1095,0
DA:1102,0
DA:1103,0
DA:1109,0
DA:1110,0
DA:1111,0
DA:1112,0
DA:1116,0
DA:1118,0
DA:1119,0
DA:1127,0
DA:1129,0
DA:1130,0
DA:1131,0
DA:1132,0
DA:1133,0
DA:1134,0
DA:1138,0
DA:1141,0
DA:1142,0
DA:1143,0
DA:1145,0
DA:1146,0
DA:1147,0
DA:1148,0
DA:1157,0
DA:1159,0
DA:1161,0
DA:1165,0
DA:1166,0
DA:1172,0
DA:1183,0
DA:1185,0
DA:1186,0
DA:1187,0
DA:1188,0
DA:1190,0
DA:1191,0
DA:1192,0
DA:1193,0
DA:1196,0
DA:1197,0
DA:1198,0
DA:1199,0
DA:1200,0
DA:1202,0
DA:1203,0
DA:1204,0
DA:1229,0
DA:1236,0
DA:1237,0
DA:1238,0
DA:1244,0
DA:1246,0
DA:1247,0
DA:1248,0
DA:1249,0
DA:1257,0
DA:1258,0
DA:1259,0
DA:1260,0
DA:1261,0
DA:1277,0
DA:1278,0
DA:1279,0
DA:1280,0
DA:1284,0
DA:1285,0
DA:1287,0
DA:1288,0
DA:1299,0
DA:1300,0
DA:1301,0
DA:1341,0
DA:1342,0
DA:1343,0
DA:1344,0
DA:1349,0
DA:1351,0
DA:1352,0
DA:1353,0
DA:1355,0
DA:1357,0
DA:1365,0
DA:1366,0
DA:1367,0
DA:1368,0
DA:1369,0
DA:1372,0
DA:1374,0
DA:1380,0
DA:1381,0
DA:1382,0
DA:1386,0
DA:1390,0
DA:1391,0
DA:1398,0
DA:1399,0
DA:1401,0
DA:1402,0
DA:1403,0
DA:1405,0
DA:1406,0
DA:1407,0
DA:1411,0
DA:1414,0
DA:1417,0
DA:1418,0
DA:1420,0
DA:1421,0
DA:1422,0
DA:1423,0
DA:1424,0
DA:1425,0
DA:1426,0
DA:1427,0
DA:1429,0
DA:1431,0
DA:1434,0
DA:1436,0
DA:1437,0
DA:1438,0
DA:1439,0
DA:1440,0
DA:1441,0
DA:1451,0
DA:1455,0
DA:1457,0
DA:1459,0
DA:1461,0
DA:1462,0
DA:1463,0
DA:1464,0
DA:1465,0
DA:1466,0
DA:1467,0
DA:1470,0
DA:1471,0
DA:1472,0
DA:1473,0
DA:1493,0
DA:1494,0
DA:1495,0
DA:1496,0
DA:1502,0
DA:1503,0
DA:1504,0
DA:1505,0
DA:1508,0
DA:1582,8
DA:1583,8
DA:1587,0
DA:1588,0
DA:1589,0
DA:1590,0
DA:1591,0
DA:1623,0
DA:1624,0
DA:1625,0
DA:1626,0
DA:1627,0
DA:1628,0
DA:1633,0
LF:349
LH:2
end_of_record
TN:
SF:/opt/ros/foxy/src/gtest_vendor/src/gtest-filepath.cc
FN:88,_ZN7testing8internalL15IsPathSeparatorEc
FN:97,_ZN7testing8internal8FilePath13GetCurrentDirEv
FN:122,_ZNK7testing8internal8FilePath15RemoveExtensionEPKc
FN:134,_ZNK7testing8internal8FilePath21FindLastPathSeparatorEv
FN:153,_ZNK7testing8internal8FilePath19RemoveDirectoryNameEv
FN:164,_ZNK7testing8internal8FilePath14RemoveFileNameEv
FN:181,_ZN7testing8internal8FilePath12MakeFileNameERKS1_S3_iPKc
FN:197,_ZN7testing8internal8FilePath11ConcatPathsERKS1_S3_
FN:207,_ZNK7testing8internal8FilePath21FileOrDirectoryExistsEv
FN:221,_ZNK7testing8internal8FilePath15DirectoryExistsEv
FN:251,_ZNK7testing8internal8FilePath15IsRootDirectoryEv
FN:263,_ZNK7testing8internal8FilePath14IsAbsolutePathEv
FN:284,_ZN7testing8internal8FilePath22GenerateUniqueFileNameERKS1_S3_PKc
FN:298,_ZNK7testing8internal8FilePath11IsDirectoryEv
FN:306,_ZNK7testing8internal8FilePath28CreateDirectoriesRecursivelyEv
FN:323,_ZNK7testing8internal8FilePath12CreateFolderEv
FN:344,_ZNK7testing8internal8FilePath27RemoveTrailingPathSeparatorEv
FN:354,_ZN7testing8internal8FilePath9NormalizeEv
FNDA:0,_ZN7testing8internal8FilePath12MakeFileNameERKS1_S3_iPKc
FNDA:0,_ZNK7testing8internal8FilePath21FileOrDirectoryExistsEv
FNDA:8,_ZNK7testing8internal8FilePath14RemoveFileNameEv
FNDA:8,_ZNK7testing8internal8FilePath21FindLastPathSeparatorEv
FNDA:0,_ZNK7testing8internal8FilePath15RemoveExtensionEPKc
FNDA:0,_ZNK7testing8internal8FilePath15IsRootDirectoryEv
FNDA:32,_ZN7testing8internal8FilePath9NormalizeEv
FNDA:2720,_ZN7testing8internalL15IsPathSeparatorEc
FNDA:0,_ZNK7testing8internal8FilePath19RemoveDirectoryNameEv
FNDA:0,_ZN7testing8internal8FilePath22GenerateUniqueFileNameERKS1_S3_PKc
FNDA:0,_ZNK7testing8internal8FilePath12CreateFolderEv
FNDA:0,_ZN7testing8internal8FilePath11ConcatPathsERKS1_S3_
FNDA:0,_ZNK7testing8internal8FilePath27RemoveTrailingPathSeparatorEv
FNDA:8,_ZNK7testing8internal8FilePath15DirectoryExistsEv
FNDA:8,_ZNK7testing8internal8FilePath28CreateDirectoriesRecursivelyEv
FNDA:8,_ZN7testing8internal8FilePath13GetCurrentDirEv
FNDA:8,_ZNK7testing8internal8FilePath14IsAbsolutePathEv
FNDA:16,_ZNK7testing8internal8FilePath11IsDirectoryEv
FNF:18
FNH:9
DA:88,2720
DA:92,2720
DA:97,8
DA:106,8
DA:107,8
DA:114,8
DA:122,0
DA:123,0
DA:124,0
DA:125,0
DA:126,0
DA:128,0
DA:134,8
DA:135,8
DA:144,8
DA:153,0
DA:154,0
DA:155,0
DA:164,8
DA:165,8
DA:166,16
DA:167,8
DA:168,8
DA:170,0
DA:172,16
DA:181,0
DA:185,0
DA:186,0
DA:187,0
DA:189,0
DA:190,0
DA:192,0
DA:197,0
DA:199,0
DA:200,0
DA:201,0
DA:202,0
DA:207,0
DA:215,0
DA:221,8
DA:222,8
DA:229,8
DA:242,16
DA:243,8
DA:246,8
DA:251,0
DA:258,0
DA:263,8
DA:264,8
DA:272,8
DA:284,0
DA:287,0
DA:288,0
DA:289,0
DA:290,0
DA:291,0
DA:292,0
DA:298,16
DA:299,32
DA:300,32
DA:306,8
DA:307,8
DA:308,0
DA:311,8
DA:312,8
DA:315,0
DA:316,0
DA:323,0
DA:332,0
DA:335,0
DA:336,0
DA:338,0
DA:344,0
DA:345,0
DA:346,0
DA:347,0
DA:354,32
DA:355,32
DA:356,0
DA:357,0
DA:359,32
DA:360,32
DA:361,32
DA:362,32
DA:364,2264
DA:365,2232
DA:366,2232
DA:367,2000
DA:374,464
DA:375,232
DA:377,2232
DA:379,32
DA:380,32
DA:381,32
LF:94
LH:47
end_of_record
TN:
SF:/opt/ros/foxy/src/gtest_vendor/src/gtest-internal-inl.h
FN:130,_ZN7testing8internal21GetRandomSeedFromFlagEi
FN:146,_ZN7testing8internal17GetNextRandomSeedEi
FN:159,_ZN7testing8internal14GTestFlagSaverC2Ev
FN:181,_ZN7testing8internal14GTestFlagSaverD2Ev
FN:280,_ZN7testing8internal7CountIfISt6vectorIPNS_8TestInfoESaIS4_EEPFbPKS3_EEEiRKT_T0_
FN:280,_ZN7testing8internal7CountIfISt6vectorIPNS_8TestCaseESaIS4_EEPFbPKS3_EEEiRKT_T0_
FN:280,_ZN7testing8internal7CountIfISt6vectorINS_14TestPartResultESaIS3_EEPFbRKS3_EEEiRKT_T0_
FN:293,_ZN7testing8internal7ForEachISt6vectorIPNS_11EnvironmentESaIS4_EEPFvS4_EEEvRKT_T0_
FN:293,_ZN7testing8internal7ForEachISt6vectorIPNS_8TestCaseESaIS4_EEPFvS4_EEEvRKT_T0_
FN:293,_ZN7testing8internal7ForEachISt6vectorIPNS_17TestEventListenerESaIS4_EEPFvS4_EEEvRKT_T0_
FN:293,_ZN7testing8internal7ForEachISt6vectorIPNS_8TestInfoESaIS4_EEPFvS4_EEEvRKT_T0_
FN:300,_ZN7testing8internal12GetElementOrIiEET_RKSt6vectorIS2_SaIS2_EEiS2_
FN:309,_ZN7testing8internal12ShuffleRangeIiEEvPNS0_6RandomEiiPSt6vectorIT_SaIS5_EE
FN:330,_ZN7testing8internal7ShuffleIiEEvPNS0_6RandomEPSt6vectorIT_SaIS5_EE
FN:337,_ZN7testing8internalL6DeleteINS_8TestInfoEEEvPT_
FN:337,_ZN7testing8internalL6DeleteINS_11EnvironmentEEEvPT_
FN:337,_ZN7testing8internalL6DeleteINS_17TestEventListenerEEEvPT_
FN:337,_ZN7testing8internalL6DeleteINS_8TestCaseEEEvPT_
FN:349,_ZN7testing8internal17TestPropertyKeyIsC2ERKNSt7__cxx1112basic_stringIcSt11char_traitsIcESaIcEEE
FN:352,_ZNK7testing8internal17TestPropertyKeyIsclERKNS_12TestPropertyE
FN:417,_ZN7testing8internal27OsStackTraceGetterInterfaceC2Ev
FN:418,_ZN7testing8internal27OsStackTraceGetterInterfaceD0Ev
FN:418,_ZN7testing8internal27OsStackTraceGetterInterfaceD2Ev
FN:444,_ZN7testing8internal18OsStackTraceGetterC2Ev
FN:571,_ZNK7testing8internal12UnitTestImpl15start_timestampEv
FN:574,_ZNK7testing8internal12UnitTestImpl12elapsed_timeEv
FN:577,_ZNK7testing8internal12UnitTestImpl6PassedEv
FN:581,_ZNK7testing8internal12UnitTestImpl6FailedEv
FN:587,_ZNK7testing8internal12UnitTestImpl11GetTestCaseEi
FN:594,_ZN7testing8internal12UnitTestImpl18GetMutableTestCaseEi
FN:600,_ZN7testing8internal12UnitTestImpl9listenersEv
FN:607,_ZNK7testing8internal12UnitTestImpl18ad_hoc_test_resultEv
FN:655,_ZN7testing8internal12UnitTestImpl11AddTestInfoEPFvvES3_PNS_8TestInfoE
FN:679,_ZN7testing8internal12UnitTestImpl27parameterized_test_registryEv
FN:684,_ZN7testing8internal12UnitTestImpl21set_current_test_caseEPNS_8TestCaseE
FN:691,_ZN7testing8internal12UnitTestImpl21set_current_test_infoEPNS_8TestInfoE
FN:710,_ZN7testing8internal12UnitTestImpl23ClearNonAdHocTestResultEv
FN:741,_ZNK7testing8internal12UnitTestImpl17current_test_caseEv
FN:742,_ZN7testing8internal12UnitTestImpl17current_test_infoEv
FN:743,_ZNK7testing8internal12UnitTestImpl17current_test_infoEv
FN:747,_ZN7testing8internal12UnitTestImpl12environmentsEv
FN:750,_ZN7testing8internal12UnitTestImpl17gtest_trace_stackEv
FN:758,_ZN7testing8internal12UnitTestImpl34InitDeathTestSubprocessControlInfoEv
FN:765,_ZNK7testing8internal12UnitTestImpl28internal_run_death_test_flagEv
FN:770,_ZN7testing8internal12UnitTestImpl18death_test_factoryEv
FN:797,_ZNK7testing8internal12UnitTestImpl11random_seedEv
FN:800,_ZN7testing8internal12UnitTestImpl6randomEv
FN:811,_ZNK7testing8internal12UnitTestImpl16catch_exceptionsEv
FN:818,_ZN7testing8internal12UnitTestImpl20set_catch_exceptionsEb
FN:933,_ZN7testing8internal15GetUnitTestImplEv
FN:973,_ZN7testing8internal18ParseNaturalNumberIiEEbRKNSt7__cxx1112basic_stringIcSt11char_traitsIcESaIcEEEPT_
FN:1046,_ZN7testing8internal17StreamingListener20AbstractSocketWriterD2Ev
FN:1046,_ZN7testing8internal17StreamingListener20AbstractSocketWriterD0Ev
FN:1052,_ZN7testing8internal17StreamingListener20AbstractSocketWriter15CloseConnectionEv
FN:1055,_ZN7testing8internal17StreamingListener20AbstractSocketWriter6SendLnERKNSt7__cxx1112basic_stringIcSt11char_traitsIcESaIcEEE
FN:1061,_ZN7testing8internal17StreamingListener12SocketWriterC2ERKNSt7__cxx1112basic_stringIcSt11char_traitsIcESaIcEEESA_
FN:1066,_ZN7testing8internal17StreamingListener12SocketWriterD2Ev
FN:1066,_ZN7testing8internal17StreamingListener12SocketWriterD0Ev
FN:1072,_ZN7testing8internal17StreamingListener12SocketWriter4SendERKNSt7__cxx1112basic_stringIcSt11char_traitsIcESaIcEEE
FN:1089,_ZN7testing8internal17StreamingListener12SocketWriter15CloseConnectionEv
FN:1107,_ZN7testing8internal17StreamingListenerC2ERKNSt7__cxx1112basic_stringIcSt11char_traitsIcESaIcEEES9_
FN:1115,_ZN7testing8internal17StreamingListener18OnTestProgramStartERKNS_8UnitTestE
FN:1119,_ZN7testing8internal17StreamingListener16OnTestProgramEndERKNS_8UnitTestE
FN:1128,_ZN7testing8internal17StreamingListener20OnTestIterationStartERKNS_8UnitTestEi
FN:1134,_ZN7testing8internal17StreamingListener18OnTestIterationEndERKNS_8UnitTestEi
FN:1141,_ZN7testing8internal17StreamingListener15OnTestCaseStartERKNS_8TestCaseE
FN:1145,_ZN7testing8internal17StreamingListener13OnTestCaseEndERKNS_8TestCaseE
FN:1151,_ZN7testing8internal17StreamingListener11OnTestStartERKNS_8TestInfoE
FN:1155,_ZN7testing8internal17StreamingListener9OnTestEndERKNS_8TestInfoE
FN:1162,_ZN7testing8internal17StreamingListener16OnTestPartResultERKNS_14TestPartResultE
FN:1172,_ZN7testing8internal17StreamingListener6SendLnERKNSt7__cxx1112basic_stringIcSt11char_traitsIcESaIcEEE
FN:1176,_ZN7testing8internal17StreamingListener5StartEv
FN:1178,_ZN7testing8internal17StreamingListener10FormatBoolB5cxx11Eb
FNDA:8,_ZN7testing8internal12UnitTestImpl17current_test_infoEv
FNDA:8,_ZN7testing8internal12UnitTestImpl23ClearNonAdHocTestResultEv
FNDA:8,_ZN7testing8internal12UnitTestImpl11AddTestInfoEPFvvES3_PNS_8TestInfoE
FNDA:0,_ZN7testing8internal17StreamingListener9OnTestEndERKNS_8TestInfoE
FNDA:16,_ZN7testing8internal7ForEachISt6vectorIPNS_8TestCaseESaIS4_EEPFvS4_EEEvRKT_T0_
FNDA:16,_ZNK7testing8internal12UnitTestImpl11GetTestCaseEi
FNDA:0,_ZN7testing8internal17TestPropertyKeyIsC2ERKNSt7__cxx1112basic_stringIcSt11char_traitsIcESaIcEEE
FNDA:0,_ZN7testing8internal17StreamingListener5StartEv
FNDA:0,_ZN7testing8internal17StreamingListener12SocketWriterD2Ev
FNDA:0,_ZN7testing8internal17StreamingListener10FormatBoolB5cxx11Eb
FNDA:0,_ZN7testing8internal17StreamingListener12SocketWriterC2ERKNSt7__cxx1112basic_stringIcSt11char_traitsIcESaIcEEESA_
FNDA:0,_ZN7testing8internal27OsStackTraceGetterInterfaceD0Ev
FNDA:0,_ZN7testing8internal17StreamingListenerC2ERKNSt7__cxx1112basic_stringIcSt11char_traitsIcESaIcEEES9_
FNDA:16,_ZN7testing8internal7ForEachISt6vectorIPNS_11EnvironmentESaIS4_EEPFvS4_EEEvRKT_T0_
FNDA:0,_ZN7testing8internal17StreamingListener20AbstractSocketWriter15CloseConnectionEv
FNDA:0,_ZN7testing8internal17StreamingListener20AbstractSocketWriterD2Ev
FNDA:0,_ZN7testing8internal17GetNextRandomSeedEi
FNDA:0,_ZN7testing8internal17StreamingListener20OnTestIterationStartERKNS_8UnitTestEi
FNDA:0,_ZN7testing8internal17StreamingListener15OnTestCaseStartERKNS_8TestCaseE
FNDA:0,_ZN7testing8internal18ParseNaturalNumberIiEEbRKNSt7__cxx1112basic_stringIcSt11char_traitsIcESaIcEEEPT_
FNDA:0,_ZNK7testing8internal12UnitTestImpl11random_seedEv
FNDA:0,_ZN7testing8internal17StreamingListener16OnTestProgramEndERKNS_8UnitTestE
FNDA:0,_ZN7testing8internal17StreamingListener13OnTestCaseEndERKNS_8TestCaseE
FNDA:48,_ZN7testing8internal12GetElementOrIiEET_RKSt6vectorIS2_SaIS2_EEiS2_
FNDA:16,_ZNK7testing8internal12UnitTestImpl6PassedEv
FNDA:0,_ZN7testing8internal12UnitTestImpl12environmentsEv
FNDA:0,_ZN7testing8internalL6DeleteINS_11EnvironmentEEEvPT_
FNDA:0,_ZNK7testing8internal17TestPropertyKeyIsclERKNS_12TestPropertyE
FNDA:0,_ZN7testing8internal17StreamingListener18OnTestIterationEndERKNS_8UnitTestEi
FNDA:0,_ZN7testing8internal12UnitTestImpl27parameterized_test_registryEv
FNDA:8,_ZN7testing8internal18OsStackTraceGetterC2Ev
FNDA:8,_ZN7testing8internal27OsStackTraceGetterInterfaceC2Ev
FNDA:8,_ZN7testing8internal14GTestFlagSaverD2Ev
FNDA:8,_ZN7testing8internal12UnitTestImpl18GetMutableTestCaseEi
FNDA:8,_ZN7testing8internalL6DeleteINS_8TestInfoEEEvPT_
FNDA:16,_ZNK7testing8internal12UnitTestImpl6FailedEv
FNDA:136,_ZN7testing8internal7CountIfISt6vectorIPNS_8TestInfoESaIS4_EEPFbPKS3_EEEiRKT_T0_
FNDA:8,_ZN7testing8internal12UnitTestImpl20set_catch_exceptionsEb
FNDA:16,_ZN7testing8internal12UnitTestImpl21set_current_test_caseEPNS_8TestCaseE
FNDA:16,_ZN7testing8internal12UnitTestImpl21set_current_test_infoEPNS_8TestInfoE
FNDA:8,_ZN7testing8internal12UnitTestImpl34InitDeathTestSubprocessControlInfoEv
FNDA:8,_ZN7testing8internal27OsStackTraceGetterInterfaceD2Ev
FNDA:0,_ZNK7testing8internal12UnitTestImpl17current_test_infoEv
FNDA:8,_ZN7testing8internalL6DeleteINS_8TestCaseEEEvPT_
FNDA:0,_ZN7testing8internal17StreamingListener12SocketWriterD0Ev
FNDA:40,_ZN7testing8internal12UnitTestImpl9listenersEv
FNDA:0,_ZN7testing8internal7ShuffleIiEEvPNS0_6RandomEPSt6vectorIT_SaIS5_EE
FNDA:0,_ZN7testing8internal17StreamingListener11OnTestStartERKNS_8TestInfoE
FNDA:152,_ZN7testing8internal15GetUnitTestImplEv
FNDA:16,_ZN7testing8internalL6DeleteINS_17TestEventListenerEEEvPT_
FNDA:0,_ZN7testing8internal12UnitTestImpl6randomEv
FNDA:8,_ZN7testing8internal14GTestFlagSaverC2Ev
FNDA:0,_ZN7testing8internal17StreamingListener20AbstractSocketWriter6SendLnERKNSt7__cxx1112basic_stringIcSt11char_traitsIcESaIcEEE
FNDA:16,_ZNK7testing8internal12UnitTestImpl12elapsed_timeEv
FNDA:16,_ZN7testing8internal7ForEachISt6vectorIPNS_8TestInfoESaIS4_EEPFvS4_EEEvRKT_T0_
FNDA:0,_ZN7testing8internal17StreamingListener18OnTestProgramStartERKNS_8UnitTestE
FNDA:0,_ZN7testing8internal12ShuffleRangeIiEEvPNS0_6RandomEiiPSt6vectorIT_SaIS5_EE
FNDA:0,_ZN7testing8internal17StreamingListener12SocketWriter4SendERKNSt7__cxx1112basic_stringIcSt11char_traitsIcESaIcEEE
FNDA:0,_ZN7testing8internal12UnitTestImpl17gtest_trace_stackEv
FNDA:0,_ZN7testing8internal12UnitTestImpl18death_test_factoryEv
FNDA:0,_ZN7testing8internal21GetRandomSeedFromFlagEi
FNDA:72,_ZN7testing8internal7CountIfISt6vectorINS_14TestPartResultESaIS3_EEPFbRKS3_EEEiRKT_T0_
FNDA:0,_ZN7testing8internal17StreamingListener20AbstractSocketWriterD0Ev
FNDA:0,_ZN7testing8internal17StreamingListener6SendLnERKNSt7__cxx1112basic_stringIcSt11char_traitsIcESaIcEEE
FNDA:8,_ZNK7testing8internal12UnitTestImpl15start_timestampEv
FNDA:8,_ZNK7testing8internal12UnitTestImpl17current_test_caseEv
FNDA:0,_ZN7testing8internal17StreamingListener16OnTestPartResultERKNS_14TestPartResultE
FNDA:8,_ZN7testing8internal7ForEachISt6vectorIPNS_17TestEventListenerESaIS4_EEPFvS4_EEEvRKT_T0_
FNDA:0,_ZN7testing8internal17StreamingListener12SocketWriter15CloseConnectionEv
FNDA:24,_ZNK7testing8internal12UnitTestImpl18ad_hoc_test_resultEv
FNDA:0,_ZNK7testing8internal12UnitTestImpl28internal_run_death_test_flagEv
FNDA:32,_ZN7testing8internal7CountIfISt6vectorIPNS_8TestCaseESaIS4_EEPFbPKS3_EEEiRKT_T0_
FNDA:64,_ZNK7testing8internal12UnitTestImpl16catch_exceptionsEv
FNF:73
FNH:34
DA:130,0
DA:131,0
DA:132,0
DA:133,0
DA:137,0
DA:138,0
DA:140,0
DA:146,0
DA:147,0
DA:148,0
DA:149,0
DA:150,0
DA:151,0
DA:159,8
DA:160,8
DA:161,8
DA:162,8
DA:163,8
DA:164,8
DA:165,8
DA:166,8
DA:167,8
DA:168,8
DA:169,8
DA:170,8
DA:171,8
DA:172,8
DA:173,8
DA:174,8
DA:175,8
DA:176,8
DA:177,8
DA:178,8
DA:181,8
DA:182,8
DA:183,8
DA:184,8
DA:185,8
DA:186,8
DA:187,8
DA:188,8
DA:189,8
DA:190,8
DA:191,8
DA:192,8
DA:193,8
DA:194,8
DA:195,8
DA:196,8
DA:197,8
DA:198,8
DA:199,8
DA:200,8
DA:280,240
DA:283,240
DA:284,408
DA:285,168
DA:286,80
DA:288,240
DA:293,56
DA:294,56
DA:295,56
DA:300,48
DA:301,48
DA:309,0
DA:311,0
DA:312,0
DA:313,0
DA:314,0
DA:315,0
DA:316,0
DA:317,0
DA:321,0
DA:322,0
DA:323,0
DA:324,0
DA:326,0
DA:330,0
DA:331,0
DA:332,0
DA:337,32
DA:338,32
DA:339,32
DA:349,0
DA:352,0
DA:353,0
DA:417,8
DA:418,8
DA:444,8
DA:571,8
DA:574,16
DA:577,16
DA:581,16
DA:582,16
DA:587,16
DA:588,16
DA:589,16
DA:594,8
DA:595,8
DA:596,8
DA:600,40
DA:607,24
DA:655,8
DA:665,8
DA:666,8
DA:667,8
DA:668,0
DA:674,8
DA:675,8
DA:679,0
DA:680,0
DA:684,16
DA:685,16
DA:686,16
DA:691,16
DA:692,16
DA:693,16
DA:710,8
DA:711,8
DA:712,8
DA:741,8
DA:742,8
DA:743,0
DA:747,0
DA:750,0
DA:751,0
DA:758,8
DA:759,8
DA:760,8
DA:765,0
DA:766,0
DA:770,0
DA:771,0
DA:797,0
DA:800,0
DA:811,64
DA:818,8
DA:933,152
DA:934,152
DA:973,0
DA:977,0
DA:978,0
DA:980,0
DA:995,0
DA:999,0
DA:1003,0
DA:1005,0
DA:1006,0
DA:1007,0
DA:1008,0
DA:1010,0
DA:1046,0
DA:1052,0
DA:1055,0
DA:1061,0
DA:1062,0
DA:1063,0
DA:1064,0
DA:1066,0
DA:1067,0
DA:1068,0
DA:1069,0
DA:1072,0
DA:1073,0
DA:1074,0
DA:1076,0
DA:1077,0
DA:1078,0
DA:1080,0
DA:1082,0
DA:1089,0
DA:1090,0
DA:1091,0
DA:1093,0
DA:1094,0
DA:1095,0
DA:1107,0
DA:1108,0
DA:1109,0
DA:1110,0
DA:1115,0
DA:1116,0
DA:1117,0
DA:1119,0
DA:1122,0
DA:1125,0
DA:1126,0
DA:1128,0
DA:1130,0
DA:1131,0
DA:1132,0
DA:1134,0
DA:1136,0
DA:1137,0
DA:1138,0
DA:1139,0
DA:1141,0
DA:1142,0
DA:1143,0
DA:1145,0
DA:1146,0
DA:1147,0
DA:1148,0
DA:1149,0
DA:1151,0
DA:1152,0
DA:1153,0
DA:1155,0
DA:1156,0
DA:1157,0
DA:1158,0
DA:1159,0
DA:1160,0
DA:1162,0
DA:1163,0
DA:1164,0
DA:1165,0
DA:1166,0
DA:1167,0
DA:1168,0
DA:1172,0
DA:1176,0
DA:1178,0
LF:223
LH:94
end_of_record
TN:
SF:/opt/ros/foxy/src/gtest_vendor/src/gtest-matchers.cc
FN:45,_ZN7testing7MatcherIRKNSt7__cxx1112basic_stringIcSt11char_traitsIcESaIcEEEEC2ES8_
FN:57,_ZN7testing7MatcherIRKNSt7__cxx1112basic_stringIcSt11char_traitsIcESaIcEEEEC2EPKc
FN:63,_ZN7testing7MatcherINSt7__cxx1112basic_stringIcSt11char_traitsIcESaIcEEEEC2ERKS6_
FN:75,_ZN7testing7MatcherINSt7__cxx1112basic_stringIcSt11char_traitsIcESaIcEEEEC2EPKc
FNDA:0,_ZN7testing7MatcherINSt7__cxx1112basic_stringIcSt11char_traitsIcESaIcEEEEC2ERKS6_
FNDA:0,_ZN7testing7MatcherINSt7__cxx1112basic_stringIcSt11char_traitsIcESaIcEEEEC2EPKc
FNDA:0,_ZN7testing7MatcherIRKNSt7__cxx1112basic_stringIcSt11char_traitsIcESaIcEEEEC2EPKc
FNDA:0,_ZN7testing7MatcherIRKNSt7__cxx1112basic_stringIcSt11char_traitsIcESaIcEEEEC2ES8_
FNF:4
FNH:0
DA:45,0
DA:57,0
DA:58,0
DA:59,0
DA:63,0
DA:75,0
LF:6
LH:0
end_of_record
TN:
SF:/opt/ros/foxy/src/gtest_vendor/src/gtest-port.cc
FN:96,_ZN7testing8internal12_GLOBAL__N_117ReadProcFileFieldIiEET_RKNSt7__cxx1112basic_stringIcSt11char_traitsIcESaIcEEEi
FN:109,_ZN7testing8internal14GetThreadCountEv
FN:625,_ZN7testing8internal2RED2Ev
FN:638,_ZN7testing8internal2RE9FullMatchEPKcRKS1_
FN:647,_ZN7testing8internal2RE12PartialMatchEPKcRKS1_
FN:655,_ZN7testing8internal2RE4InitEPKc
FN:940,_ZN7testing8internal18FormatFileLocationB5cxx11EPKci
FN:958,_ZN7testing8internal37FormatCompilerIndependentFileLocationB5cxx11EPKci
FN:968,_ZN7testing8internal8GTestLogC2ENS0_16GTestLogSeverityEPKci
FN:979,_ZN7testing8internal8GTestLogD2Ev
FN:997,_ZN7testing8internal14CapturedStreamC2Ei
FN:1045,_ZN7testing8internal14CapturedStreamD2Ev
FN:1049,_ZN7testing8internal14CapturedStream17GetCapturedStringB5cxx11Ev
FN:1079,_ZN7testing8internalL13CaptureStreamEiPKcPPNS0_14CapturedStreamE
FN:1089,_ZN7testing8internalL17GetCapturedStreamEPPNS0_14CapturedStreamE
FN:1099,_ZN7testing8internal13CaptureStdoutEv
FN:1104,_ZN7testing8internal13CaptureStderrEv
FN:1109,_ZN7testing8internal17GetCapturedStdoutB5cxx11Ev
FN:1114,_ZN7testing8internal17GetCapturedStderrB5cxx11Ev
FN:1124,_ZN7testing8internal11GetFileSizeEP8_IO_FILE
FN:1129,_ZN7testing8internal14ReadEntireFileB5cxx11EP8_IO_FILE
FN:1155,_ZN7testing8internal18GetInjectableArgvsB5cxx11Ev
FN:1162,_ZN7testing8internal18SetInjectableArgvsEPKSt6vectorINSt7__cxx1112basic_stringIcSt11char_traitsIcESaIcEEESaIS7_EE
FN:1167,_ZN7testing8internal18SetInjectableArgvsERKSt6vectorINSt7__cxx1112basic_stringIcSt11char_traitsIcESaIcEEESaIS7_EE
FN:1179,_ZN7testing8internal20ClearInjectableArgvsEv
FN:1197,_ZN7testing8internalL12FlagToEnvVarEPKc
FN:1212,_ZN7testing8internal10ParseInt32ERKNS_7MessageEPKcPi
FN:1254,_ZN7testing8internal16BoolFromGTestEnvEPKcb
FN:1268,_ZN7testing8internal17Int32FromGTestEnvEPKci
FN:1300,_ZN7testing8internal25OutputFlagAlsoCheckEnvVarB5cxx11Ev
FN:1311,_ZN7testing8internal18StringFromGTestEnvEPKcS2_
FNDA:0,_ZN7testing8internal37FormatCompilerIndependentFileLocationB5cxx11EPKci
FNDA:0,_ZN7testing8internal14ReadEntireFileB5cxx11EP8_IO_FILE
FNDA:24,_ZN7testing8internal17Int32FromGTestEnvEPKci
FNDA:48,_ZN7testing8internal18StringFromGTestEnvEPKcS2_
FNDA:0,_ZN7testing8internal18SetInjectableArgvsERKSt6vectorINSt7__cxx1112basic_stringIcSt11char_traitsIcESaIcEEESaIS7_EE
FNDA:0,_ZN7testing8internal18FormatFileLocationB5cxx11EPKci
FNDA:8,_ZN7testing8internal25OutputFlagAlsoCheckEnvVarB5cxx11Ev
FNDA:0,_ZN7testing8internal14GetThreadCountEv
FNDA:0,_ZN7testing8internal14CapturedStreamC2Ei
FNDA:0,_ZN7testing8internal14CapturedStream17GetCapturedStringB5cxx11Ev
FNDA:0,_ZN7testing8internal2RED2Ev
FNDA:0,_ZN7testing8internal17GetCapturedStderrB5cxx11Ev
FNDA:0,_ZN7testing8internal14CapturedStreamD2Ev
FNDA:0,_ZN7testing8internalL13CaptureStreamEiPKcPPNS0_14CapturedStreamE
FNDA:0,_ZN7testing8internal2RE4InitEPKc
FNDA:0,_ZN7testing8internal17GetCapturedStdoutB5cxx11Ev
FNDA:0,_ZN7testing8internal10ParseInt32ERKNS_7MessageEPKcPi
FNDA:0,_ZN7testing8internal13CaptureStderrEv
FNDA:0,_ZN7testing8internal12_GLOBAL__N_117ReadProcFileFieldIiEET_RKNSt7__cxx1112basic_stringIcSt11char_traitsIcESaIcEEEi
FNDA:144,_ZN7testing8internalL12FlagToEnvVarEPKc
FNDA:72,_ZN7testing8internal16BoolFromGTestEnvEPKcb
FNDA:0,_ZN7testing8internal8GTestLogD2Ev
FNDA:0,_ZN7testing8internal18GetInjectableArgvsB5cxx11Ev
FNDA:0,_ZN7testing8internal18SetInjectableArgvsEPKSt6vectorINSt7__cxx1112basic_stringIcSt11char_traitsIcESaIcEEESaIS7_EE
FNDA:0,_ZN7testing8internal11GetFileSizeEP8_IO_FILE
FNDA:0,_ZN7testing8internal8GTestLogC2ENS0_16GTestLogSeverityEPKci
FNDA:0,_ZN7testing8internalL17GetCapturedStreamEPPNS0_14CapturedStreamE
FNDA:0,_ZN7testing8internal13CaptureStdoutEv
FNDA:0,_ZN7testing8internal20ClearInjectableArgvsEv
FNDA:0,_ZN7testing8internal2RE9FullMatchEPKcRKS1_
FNDA:0,_ZN7testing8internal2RE12PartialMatchEPKcRKS1_
FNF:31
FNH:5
DA:96,0
DA:97,0
DA:98,0
DA:99,0
DA:100,0
DA:102,0
DA:103,0
DA:104,0
DA:109,0
DA:111,0
DA:112,0
DA:625,0
DA:626,0
DA:631,0
DA:632,0
DA:634,0
DA:635,0
DA:638,0
DA:639,0
DA:642,0
DA:647,0
DA:648,0
DA:651,0
DA:655,0
DA:656,0
DA:660,0
DA:661,0
DA:663,0
DA:664,0
DA:673,0
DA:674,0
DA:675,0
DA:677,0
DA:678,0
DA:679,0
DA:681,0
DA:682,0
DA:940,0
DA:941,0
DA:943,0
DA:944,0
DA:949,0
DA:958,0
DA:960,0
DA:962,0
DA:963,0
DA:965,0
DA:968,0
DA:969,0
DA:970,0
DA:974,0
DA:975,0
DA:976,0
DA:979,0
DA:980,0
DA:981,0
DA:982,0
DA:983,0
DA:985,0
DA:997,0
DA:1035,0
DA:1037,0
DA:1038,0
DA:1040,0
DA:1041,0
DA:1042,0
DA:1043,0
DA:1045,0
DA:1046,0
DA:1047,0
DA:1049,0
DA:1050,0
DA:1052,0
DA:1053,0
DA:1054,0
DA:1055,0
DA:1058,0
DA:1059,0
DA:1060,0
DA:1061,0
DA:1079,0
DA:1081,0
DA:1082,0
DA:1083,0
DA:1085,0
DA:1086,0
DA:1089,0
DA:1090,0
DA:1092,0
DA:1093,0
DA:1095,0
DA:1099,0
DA:1100,0
DA:1101,0
DA:1104,0
DA:1105,0
DA:1106,0
DA:1109,0
DA:1110,0
DA:1114,0
DA:1115,0
DA:1124,0
DA:1125,0
DA:1126,0
DA:1129,0
DA:1130,0
DA:1131,0
DA:1133,0
DA:1134,0
DA:1136,0
DA:1140,0
DA:1141,0
DA:1142,0
DA:1143,0
DA:1145,0
DA:1146,0
DA:1148,0
DA:1155,0
DA:1156,0
DA:1157,0
DA:1159,0
DA:1162,0
DA:1163,0
DA:1164,0
DA:1165,0
DA:1167,0
DA:1168,0
DA:1169,0
DA:1170,0
DA:1179,0
DA:1180,0
DA:1181,0
DA:1182,0
DA:1197,144
DA:1199,288
DA:1201,288
DA:1202,2912
DA:1203,2768
DA:1206,288
DA:1212,0
DA:1214,0
DA:1215,0
DA:1218,0
DA:1220,0
DA:1221,0
DA:1222,0
DA:1223,0
DA:1224,0
DA:1225,0
DA:1226,0
DA:1230,0
DA:1231,0
DA:1234,0
DA:1237,0
DA:1238,0
DA:1239,0
DA:1240,0
DA:1241,0
DA:1242,0
DA:1243,0
DA:1246,0
DA:1247,0
DA:1254,72
DA:1258,72
DA:1259,72
DA:1260,72
DA:1261,144
DA:1268,24
DA:1272,48
DA:1273,24
DA:1274,24
DA:1276,24
DA:1279,0
DA:1280,0
DA:1282,0
DA:1283,0
DA:1284,0
DA:1285,0
DA:1288,0
DA:1300,8
DA:1301,8
DA:1302,8
DA:1303,8
DA:1304,0
DA:1306,8
DA:1311,48
DA:1315,48
DA:1316,48
DA:1317,96
LF:189
LH:25
end_of_record
TN:
SF:/opt/ros/foxy/src/gtest_vendor/src/gtest-printers.cc
FN:63,_ZN7testing12_GLOBAL__N_126PrintByteSegmentInObjectToEPKhmmPSo
FN:82,_ZN7testing12_GLOBAL__N_124PrintBytesInObjectToImplEPKhmPSo
FN:114,_ZN7testing9internal220PrintBytesInObjectToEPKhmPSo
FN:137,_ZN7testing8internal16IsPrintableAsciiEw
FN:146,_ZN7testing8internalL20PrintAsCharLiteralToIhaEENS0_10CharFormatET0_PSo
FN:146,_ZN7testing8internalL20PrintAsCharLiteralToIwwEENS0_10CharFormatET0_PSo
FN:146,_ZN7testing8internalL20PrintAsCharLiteralToIhhEENS0_10CharFormatET0_PSo
FN:195,_ZN7testing8internalL22PrintAsStringLiteralToEwPSo
FN:210,_ZN7testing8internalL22PrintAsStringLiteralToEcPSo
FN:220,_ZN7testing8internal18PrintCharAndCodeToIwwEEvT0_PSo
FN:220,_ZN7testing8internal18PrintCharAndCodeToIhhEEvT0_PSo
FN:220,_ZN7testing8internal18PrintCharAndCodeToIhaEEvT0_PSo
FN:244,_ZN7testing8internal7PrintToEhPSo
FN:247,_ZN7testing8internal7PrintToEaPSo
FN:253,_ZN7testing8internal7PrintToEwPSo
FN:265,_ZN7testing8internalL20PrintCharsAsStringToIcEENS0_10CharFormatEPKT_mPSo
FN:265,_ZN7testing8internalL20PrintCharsAsStringToIwEENS0_10CharFormatEPKT_mPSo
FN:295,_ZN7testing8internalL23UniversalPrintCharArrayIwEEvPKT_mPSo
FN:295,_ZN7testing8internalL23UniversalPrintCharArrayIcEEvPKT_mPSo
FN:318,_ZN7testing8internal19UniversalPrintArrayEPKcmPSo
FN:324,_ZN7testing8internal19UniversalPrintArrayEPKwmPSo
FN:329,_ZN7testing8internal7PrintToEPKcPSo
FN:346,_ZN7testing8internal7PrintToEPKwPSo
FN:358,_ZN7testing8internal12_GLOBAL__N_131ContainsUnprintableControlCodesEPKcm
FN:377,_ZN7testing8internal12_GLOBAL__N_115IsUTF8TrailByteEh
FN:379,_ZN7testing8internal12_GLOBAL__N_111IsValidUTF8EPKcm
FN:414,_ZN7testing8internal12_GLOBAL__N_122ConditionalPrintAsTextEPKcmPSo
FN:434,_ZN7testing8internal13PrintStringToERKNSt7__cxx1112basic_stringIcSt11char_traitsIcESaIcEEEPSo
FN:450,_ZN7testing8internal17PrintWideStringToERKNSt7__cxx1112basic_stringIwSt11char_traitsIwESaIwEEEPSo
FNDA:0,_ZN7testing8internalL22PrintAsStringLiteralToEwPSo
FNDA:0,_ZN7testing8internal7PrintToEhPSo
FNDA:0,_ZN7testing8internalL23UniversalPrintCharArrayIcEEvPKT_mPSo
FNDA:0,_ZN7testing8internal17PrintWideStringToERKNSt7__cxx1112basic_stringIwSt11char_traitsIwESaIwEEEPSo
FNDA:0,_ZN7testing12_GLOBAL__N_124PrintBytesInObjectToImplEPKhmPSo
FNDA:0,_ZN7testing8internal7PrintToEPKwPSo
FNDA:0,_ZN7testing8internalL22PrintAsStringLiteralToEcPSo
FNDA:0,_ZN7testing8internalL20PrintCharsAsStringToIwEENS0_10CharFormatEPKT_mPSo
FNDA:0,_ZN7testing8internalL20PrintAsCharLiteralToIhaEENS0_10CharFormatET0_PSo
FNDA:0,_ZN7testing8internalL20PrintAsCharLiteralToIhhEENS0_10CharFormatET0_PSo
FNDA:0,_ZN7testing8internal18PrintCharAndCodeToIhaEEvT0_PSo
FNDA:0,_ZN7testing9internal220PrintBytesInObjectToEPKhmPSo
FNDA:0,_ZN7testing8internal13PrintStringToERKNSt7__cxx1112basic_stringIcSt11char_traitsIcESaIcEEEPSo
FNDA:0,_ZN7testing8internal12_GLOBAL__N_111IsValidUTF8EPKcm
FNDA:0,_ZN7testing8internalL20PrintAsCharLiteralToIwwEENS0_10CharFormatET0_PSo
FNDA:0,_ZN7testing8internal7PrintToEPKcPSo
FNDA:0,_ZN7testing8internal18PrintCharAndCodeToIwwEEvT0_PSo
FNDA:0,_ZN7testing8internal16IsPrintableAsciiEw
FNDA:0,_ZN7testing8internal12_GLOBAL__N_131ContainsUnprintableControlCodesEPKcm
FNDA:0,_ZN7testing12_GLOBAL__N_126PrintByteSegmentInObjectToEPKhmmPSo
FNDA:0,_ZN7testing8internal12_GLOBAL__N_115IsUTF8TrailByteEh
FNDA:0,_ZN7testing8internalL23UniversalPrintCharArrayIwEEvPKT_mPSo
FNDA:0,_ZN7testing8internal7PrintToEaPSo
FNDA:0,_ZN7testing8internal19UniversalPrintArrayEPKwmPSo
FNDA:0,_ZN7testing8internalL20PrintCharsAsStringToIcEENS0_10CharFormatEPKT_mPSo
FNDA:0,_ZN7testing8internal19UniversalPrintArrayEPKcmPSo
FNDA:0,_ZN7testing8internal18PrintCharAndCodeToIhhEEvT0_PSo
FNDA:0,_ZN7testing8internal7PrintToEwPSo
FNDA:0,_ZN7testing8internal12_GLOBAL__N_122ConditionalPrintAsTextEPKcmPSo
FNF:29
FNH:0
DA:63,0
DA:65,0
DA:66,0
DA:67,0
DA:68,0
DA:71,0
DA:72,0
DA:74,0
DA:76,0
DA:77,0
DA:79,0
DA:82,0
DA:85,0
DA:87,0
DA:88,0
DA:93,0
DA:94,0
DA:96,0
DA:97,0
DA:99,0
DA:100,0
DA:102,0
DA:103,0
DA:114,0
DA:116,0
DA:117,0
DA:137,0
DA:138,0
DA:146,0
DA:147,0
DA:148,0
DA:149,0
DA:150,0
DA:151,0
DA:152,0
DA:153,0
DA:154,0
DA:155,0
DA:156,0
DA:157,0
DA:158,0
DA:159,0
DA:160,0
DA:161,0
DA:162,0
DA:163,0
DA:164,0
DA:165,0
DA:166,0
DA:167,0
DA:168,0
DA:169,0
DA:170,0
DA:171,0
DA:172,0
DA:173,0
DA:174,0
DA:175,0
DA:176,0
DA:177,0
DA:178,0
DA:179,0
DA:180,0
DA:181,0
DA:183,0
DA:184,0
DA:185,0
DA:186,0
DA:187,0
DA:190,0
DA:195,0
DA:196,0
DA:197,0
DA:198,0
DA:199,0
DA:200,0
DA:201,0
DA:202,0
DA:203,0
DA:204,0
DA:210,0
DA:211,0
DA:212,0
DA:220,0
DA:222,0
DA:223,0
DA:224,0
DA:229,0
DA:230,0
DA:231,0
DA:236,0
DA:239,0
DA:241,0
DA:244,0
DA:245,0
DA:246,0
DA:247,0
DA:248,0
DA:249,0
DA:253,0
DA:254,0
DA:255,0
DA:265,0
DA:267,0
DA:268,0
DA:269,0
DA:270,0
DA:271,0
DA:272,0
DA:273,0
DA:277,0
DA:279,0
DA:281,0
DA:282,0
DA:285,0
DA:286,0
DA:295,0
DA:304,0
DA:305,0
DA:306,0
DA:313,0
DA:314,0
DA:318,0
DA:319,0
DA:320,0
DA:324,0
DA:325,0
DA:326,0
DA:329,0
DA:330,0
DA:331,0
DA:333,0
DA:334,0
DA:336,0
DA:346,0
DA:347,0
DA:348,0
DA:350,0
DA:351,0
DA:353,0
DA:358,0
DA:359,0
DA:361,0
DA:362,0
DA:363,0
DA:364,0
DA:365,0
DA:368,0
DA:369,0
DA:370,0
DA:374,0
DA:377,0
DA:379,0
DA:380,0
DA:382,0
DA:383,0
DA:385,0
DA:386,0
DA:388,0
DA:389,0
DA:390,0
DA:391,0
DA:392,0
DA:393,0
DA:394,0
DA:396,0
DA:397,0
DA:398,0
DA:399,0
DA:400,0
DA:401,0
DA:402,0
DA:404,0
DA:405,0
DA:406,0
DA:408,0
DA:411,0
DA:414,0
DA:415,0
DA:416,0
DA:417,0
DA:419,0
DA:434,0
DA:435,0
DA:436,0
DA:437,0
DA:440,0
DA:450,0
DA:451,0
DA:452,0
LF:190
LH:0
end_of_record
TN:
SF:/opt/ros/foxy/src/gtest_vendor/src/gtest-test-part.cc
FN:42,_ZN7testing14TestPartResult14ExtractSummaryB5cxx11EPKc
FN:48,_ZN7testinglsERSoRKNS_14TestPartResultE
FN:62,_ZN7testing19TestPartResultArray6AppendERKNS_14TestPartResultE
FN:67,_ZNK7testing19TestPartResultArray17GetTestPartResultEi
FN:77,_ZNK7testing19TestPartResultArray4sizeEv
FN:83,_ZN7testing8internal24HasNewFatalFailureHelperC2Ev
FN:90,_ZN7testing8internal24HasNewFatalFailureHelperD2Ev
FN:90,_ZN7testing8internal24HasNewFatalFailureHelperD0Ev
FN:95,_ZN7testing8internal24HasNewFatalFailureHelper20ReportTestPartResultERKNS_14TestPartResultE
FNDA:0,_ZNK7testing19TestPartResultArray4sizeEv
FNDA:0,_ZN7testinglsERSoRKNS_14TestPartResultE
FNDA:0,_ZN7testing8internal24HasNewFatalFailureHelperD0Ev
FNDA:0,_ZN7testing8internal24HasNewFatalFailureHelperD2Ev
FNDA:0,_ZN7testing8internal24HasNewFatalFailureHelperC2Ev
FNDA:0,_ZN7testing8internal24HasNewFatalFailureHelper20ReportTestPartResultERKNS_14TestPartResultE
FNDA:0,_ZN7testing19TestPartResultArray6AppendERKNS_14TestPartResultE
FNDA:0,_ZN7testing14TestPartResult14ExtractSummaryB5cxx11EPKc
FNDA:0,_ZNK7testing19TestPartResultArray17GetTestPartResultEi
FNF:9
FNH:0
DA:42,0
DA:43,0
DA:44,0
DA:48,0
DA:49,0
DA:50,0
DA:52,0
DA:53,0
DA:54,0
DA:55,0
DA:58,0
DA:62,0
DA:63,0
DA:64,0
DA:67,0
DA:68,0
DA:69,0
DA:70,0
DA:73,0
DA:77,0
DA:78,0
DA:83,0
DA:86,0
DA:87,0
DA:88,0
DA:90,0
DA:91,0
DA:93,0
DA:95,0
DA:97,0
DA:98,0
DA:99,0
DA:100,0
LF:33
LH:0
end_of_record
TN:
SF:/opt/ros/foxy/src/gtest_vendor/src/gtest-typed-test.cc
FN:42,_ZN7testing8internalL10SkipSpacesEPKc
FN:48,_ZN7testing8internalL18SplitIntoTestNamesEPKc
FN:60,_ZN7testing8internal19TypedTestCasePState25VerifyRegisteredTestNamesEPKciS3_
FNDA:0,_ZN7testing8internalL18SplitIntoTestNamesEPKc
FNDA:0,_ZN7testing8internal19TypedTestCasePState25VerifyRegisteredTestNamesEPKciS3_
FNDA:0,_ZN7testing8internalL10SkipSpacesEPKc
FNF:3
FNH:0
DA:42,0
DA:43,0
DA:44,0
DA:45,0
DA:48,0
DA:49,0
DA:50,0
DA:51,0
DA:52,0
DA:54,0
DA:60,0
DA:63,0
DA:65,0
DA:67,0
DA:69,0
DA:70,0
DA:71,0
DA:72,0
DA:73,0
DA:74,0
DA:75,0
DA:78,0
DA:79,0
DA:80,0
DA:81,0
DA:82,0
DA:83,0
DA:84,0
DA:88,0
DA:89,0
DA:91,0
DA:92,0
DA:96,0
DA:97,0
DA:98,0
DA:99,0
DA:100,0
DA:104,0
DA:105,0
DA:106,0
DA:108,0
DA:109,0
DA:112,0
LF:43
LH:0
end_of_record
TN:
SF:/opt/ros/foxy/src/gtest_vendor/src/gtest.cc
FN:198,_ZN7testing8internalL18OpenFileForWritingERKNSt7__cxx1112basic_stringIcSt11char_traitsIcESaIcEEE
FN:216,_ZN7testingL16GetDefaultFilterEv
FN:353,_ZN7testing8internal6Random8GenerateEj
FN:373,_ZN7testing8internalL18GTestIsInitializedEv
FN:378,_ZN7testing8internalL19SumOverTestCaseListERKSt6vectorIPNS_8TestCaseESaIS3_EEMS2_KFivE
FN:388,_ZN7testing8internalL14TestCasePassedEPKNS_8TestCaseE
FN:393,_ZN7testing8internalL14TestCaseFailedEPKNS_8TestCaseE
FN:399,_ZN7testing8internalL17ShouldRunTestCaseEPKNS_8TestCaseE
FN:404,_ZN7testing8internal12AssertHelperC2ENS_14TestPartResult4TypeEPKciS5_
FN:411,_ZN7testing8internal12AssertHelperD2Ev
FN:416,_ZNK7testing8internal12AssertHelperaSERKNS_7MessageE
FN:429,_ZN7testing8internal8GetArgvsB5cxx11Ev
FN:442,_ZN7testing8internal24GetCurrentExecutableNameEv
FN:457,_ZN7testing8internal15UnitTestOptions15GetOutputFormatB5cxx11Ev
FN:467,_ZN7testing8internal15UnitTestOptions27GetAbsolutePathToOutputFileB5cxx11Ev
FN:506,_ZN7testing8internal15UnitTestOptions20PatternMatchesStringEPKcS3_
FN:523,_ZN7testing8internal15UnitTestOptions13MatchesFilterERKNSt7__cxx1112basic_stringIcSt11char_traitsIcESaIcEEEPKc
FN:546,_ZN7testing8internal15UnitTestOptions17FilterMatchesTestERKNSt7__cxx1112basic_stringIcSt11char_traitsIcESaIcEEES9_
FN:607,_ZN7testing32ScopedFakeTestPartResultReporterC2EPNS_19TestPartResultArrayE
FN:617,_ZN7testing32ScopedFakeTestPartResultReporterC2ENS0_13InterceptModeEPNS_19TestPartResultArrayE
FN:624,_ZN7testing32ScopedFakeTestPartResultReporter4InitEv
FN:637,_ZN7testing32ScopedFakeTestPartResultReporterD2Ev
FN:637,_ZN7testing32ScopedFakeTestPartResultReporterD0Ev
FN:648,_ZN7testing32ScopedFakeTestPartResultReporter20ReportTestPartResultERKNS_14TestPartResultE
FN:664,_ZN7testing8internal13GetTestTypeIdEv
FN:675,_ZN7testing8internalL13HasOneFailureEPKcS2_S2_RKNS_19TestPartResultArrayENS_14TestPartResult4TypeERKNSt7__cxx1112basic_stringIcSt11char_traitsIcESaIcEEE
FN:714,_ZN7testing8internal20SingleFailureCheckerC2EPKNS_19TestPartResultArrayENS_14TestPartResult4TypeERKNSt7__cxx1112basic_stringIcSt11char_traitsIcESaIcEEE
FN:723,_ZN7testing8internal20SingleFailureCheckerD2Ev
FN:727,_ZN7testing8internal35DefaultGlobalTestPartResultReporterC2EPNS0_12UnitTestImplE
FN:730,_ZN7testing8internal35DefaultGlobalTestPartResultReporter20ReportTestPartResultERKNS_14TestPartResultE
FN:736,_ZN7testing8internal38DefaultPerThreadTestPartResultReporterC2EPNS0_12UnitTestImplE
FN:739,_ZN7testing8internal38DefaultPerThreadTestPartResultReporter20ReportTestPartResultERKNS_14TestPartResultE
FN:746,_ZN7testing8internal12UnitTestImpl31GetGlobalTestPartResultReporterEv
FN:752,_ZN7testing8internal12UnitTestImpl31SetGlobalTestPartResultReporterEPNS_31TestPartResultReporterInterfaceE
FN:760,_ZN7testing8internal12UnitTestImpl41GetTestPartResultReporterForCurrentThreadEv
FN:765,_ZN7testing8internal12UnitTestImpl41SetTestPartResultReporterForCurrentThreadEPNS_31TestPartResultReporterInterfaceE
FN:771,_ZNK7testing8internal12UnitTestImpl26successful_test_case_countEv
FN:776,_ZNK7testing8internal12UnitTestImpl22failed_test_case_countEv
FN:781,_ZNK7testing8internal12UnitTestImpl21total_test_case_countEv
FN:787,_ZNK7testing8internal12UnitTestImpl22test_case_to_run_countEv
FN:792,_ZNK7testing8internal12UnitTestImpl21successful_test_countEv
FN:797,_ZNK7testing8internal12UnitTestImpl18skipped_test_countEv
FN:802,_ZNK7testing8internal12UnitTestImpl17failed_test_countEv
FN:807,_ZNK7testing8internal12UnitTestImpl30reportable_disabled_test_countEv
FN:813,_ZNK7testing8internal12UnitTestImpl19disabled_test_countEv
FN:818,_ZNK7testing8internal12UnitTestImpl21reportable_test_countEv
FN:823,_ZNK7testing8internal12UnitTestImpl16total_test_countEv
FN:828,_ZNK7testing8internal12UnitTestImpl17test_to_run_countEv
FN:842,_ZN7testing8internal12UnitTestImpl28CurrentOsStackTraceExceptTopB5cxx11Ei
FN:852,_ZN7testing8internal15GetTimeInMillisEv
FN:938,_ZN7testing8internal6String13CStringEqualsEPKcS3_
FN:950,_ZN7testing8internalL24StreamWideCharsToMessageEPKwmPNS_7MessageE
FN:966,_ZN7testing8internal11SplitStringERKNSt7__cxx1112basic_stringIcSt11char_traitsIcESaIcEEEcPSt6vectorIS6_SaIS6_EE
FN:990,_ZN7testing7MessageC2Ev
FN:998,_ZN7testing7MessagelsEPKw
FN:1001,_ZN7testing7MessagelsEPw
FN:1008,_ZN7testing7MessagelsERKNSt7__cxx1112basic_stringIwSt11char_traitsIwESaIwEEE
FN:1025,_ZNK7testing7Message9GetStringB5cxx11Ev
FN:1031,_ZN7testing15AssertionResultC2ERKS0_
FN:1038,_ZN7testing15AssertionResult4swapERS0_
FN:1045,_ZNK7testing15AssertionResultntEv
FN:1052,_ZN7testing16AssertionSuccessEv
FN:1057,_ZN7testing16AssertionFailureEv
FN:1063,_ZN7testing16AssertionFailureERKNS_7MessageE
FN:1070,_ZN7testing8internal13edit_distance21CalculateOptimalEditsERKSt6vectorImSaImEES6_
FN:1132,_ZN7testing8internal13edit_distance12_GLOBAL__N_115InternalStrings5GetIdERKNSt7__cxx1112basic_stringIcSt11char_traitsIcESaIcEEE
FN:1146,_ZN7testing8internal13edit_distance21CalculateOptimalEditsERKSt6vectorINSt7__cxx1112basic_stringIcSt11char_traitsIcESaIcEEESaIS8_EESC_
FN:1170,_ZN7testing8internal13edit_distance12_GLOBAL__N_14HunkC2Emm
FN:1177,_ZN7testing8internal13edit_distance12_GLOBAL__N_14Hunk8PushLineEcPKc
FN:1195,_ZN7testing8internal13edit_distance12_GLOBAL__N_14Hunk7PrintToEPSo
FN:1205,_ZNK7testing8internal13edit_distance12_GLOBAL__N_14Hunk9has_editsEv
FN:1208,_ZN7testing8internal13edit_distance12_GLOBAL__N_14Hunk10FlushEditsEv
FN:1217,_ZNK7testing8internal13edit_distance12_GLOBAL__N_14Hunk11PrintHeaderEPSo
FN:1245,_ZN7testing8internal13edit_distance17CreateUnifiedDiffERKSt6vectorINSt7__cxx1112basic_stringIcSt11char_traitsIcESaIcEEESaIS8_EESC_m
FN:1314,_ZN7testing8internal12_GLOBAL__N_118SplitEscapedStringERKNSt7__cxx1112basic_stringIcSt11char_traitsIcESaIcEEE
FN:1354,_ZN7testing8internal9EqFailureEPKcS2_RKNSt7__cxx1112basic_stringIcSt11char_traitsIcESaIcEEESA_b
FN:1389,_ZN7testing8internal30GetBoolAssertionFailureMessageB5cxx11ERKNS_15AssertionResultEPKcS5_S5_
FN:1405,_ZN7testing8internal20DoubleNearPredFormatEPKcS2_S2_ddd
FN:1427,_ZN7testing8internal15FloatingPointLEIfEENS_15AssertionResultEPKcS4_T_S5_
FN:1427,_ZN7testing8internal15FloatingPointLEIdEENS_15AssertionResultEPKcS4_T_S5_
FN:1464,_ZN7testing7FloatLEEPKcS1_ff
FN:1471,_ZN7testing8DoubleLEEPKcS1_dd
FN:1480,_ZN7testing8internal11CmpHelperEQEPKcS2_xx
FN:1513,_ZN7testing8internal11CmpHelperNEEPKcS2_xx
FN:1516,_ZN7testing8internal11CmpHelperLEEPKcS2_xx
FN:1519,_ZN7testing8internal11CmpHelperLTEPKcS2_xx
FN:1522,_ZN7testing8internal11CmpHelperGEEPKcS2_xx
FN:1525,_ZN7testing8internal11CmpHelperGTEPKcS2_xx
FN:1530,_ZN7testing8internal14CmpHelperSTREQEPKcS2_S2_S2_
FN:1546,_ZN7testing8internal18CmpHelperSTRCASEEQEPKcS2_S2_S2_
FN:1562,_ZN7testing8internal14CmpHelperSTRNEEPKcS2_S2_S2_
FN:1576,_ZN7testing8internal18CmpHelperSTRCASENEEPKcS2_S2_S2_
FN:1600,_ZN7testing12_GLOBAL__N_115IsSubstringPredEPKcS2_
FN:1606,_ZN7testing12_GLOBAL__N_115IsSubstringPredEPKwS2_
FN:1614,_ZN7testing12_GLOBAL__N_115IsSubstringPredINSt7__cxx1112basic_stringIcSt11char_traitsIcESaIcEEEEEbRKT_SA_
FN:1614,_ZN7testing12_GLOBAL__N_115IsSubstringPredINSt7__cxx1112basic_stringIwSt11char_traitsIwESaIwEEEEEbRKT_SA_
FN:1624,_ZN7testing12_GLOBAL__N_115IsSubstringImplIPKwEENS_15AssertionResultEbPKcS6_RKT_S9_
FN:1624,_ZN7testing12_GLOBAL__N_115IsSubstringImplIPKcEENS_15AssertionResultEbS3_S3_RKT_S7_
FN:1624,_ZN7testing12_GLOBAL__N_115IsSubstringImplINSt7__cxx1112basic_stringIcSt11char_traitsIcESaIcEEEEENS_15AssertionResultEbPKcSA_RKT_SD_
FN:1624,_ZN7testing12_GLOBAL__N_115IsSubstringImplINSt7__cxx1112basic_stringIwSt11char_traitsIwESaIwEEEEENS_15AssertionResultEbPKcSA_RKT_SD_
FN:1647,_ZN7testing11IsSubstringEPKcS1_S1_S1_
FN:1653,_ZN7testing11IsSubstringEPKcS1_PKwS3_
FN:1659,_ZN7testing14IsNotSubstringEPKcS1_S1_S1_
FN:1665,_ZN7testing14IsNotSubstringEPKcS1_PKwS3_
FN:1671,_ZN7testing11IsSubstringEPKcS1_RKNSt7__cxx1112basic_stringIcSt11char_traitsIcESaIcEEES9_
FN:1677,_ZN7testing14IsNotSubstringEPKcS1_RKNSt7__cxx1112basic_stringIcSt11char_traitsIcESaIcEEES9_
FN:1684,_ZN7testing11IsSubstringEPKcS1_RKNSt7__cxx1112basic_stringIwSt11char_traitsIwESaIwEEES9_
FN:1690,_ZN7testing14IsNotSubstringEPKcS1_RKNSt7__cxx1112basic_stringIwSt11char_traitsIwESaIwEEES9_
FN:1788,_ZN7testing8internal11ChopLowBitsEPji
FN:1800,_ZN7testing8internal15CodePointToUtf8B5cxx11Ej
FN:1835,_ZN7testing8internal20IsUtf16SurrogatePairEww
FN:1841,_ZN7testing8internal37CreateCodePointFromUtf16SurrogatePairEww
FN:1864,_ZN7testing8internal16WideStringToUtf8B5cxx11EPKwi
FN:1889,_ZN7testing8internal6String15ShowWideCStringB5cxx11EPKw
FN:1901,_ZN7testing8internal6String17WideCStringEqualsEPKwS3_
FN:1910,_ZN7testing8internal14CmpHelperSTREQEPKcS2_PKwS4_
FN:1926,_ZN7testing8internal14CmpHelperSTRNEEPKcS2_PKwS4_
FN:1946,_ZN7testing8internal6String28CaseInsensitiveCStringEqualsEPKcS3_
FN:1964,_ZN7testing8internal6String32CaseInsensitiveWideCStringEqualsEPKwS3_
FN:1988,_ZN7testing8internal6String23EndsWithCaseInsensitiveERKNSt7__cxx1112basic_stringIcSt11char_traitsIcESaIcEEES9_
FN:1998,_ZN7testing8internal6String15FormatIntWidth2B5cxx11Ei
FN:2005,_ZN7testing8internal6String12FormatHexIntB5cxx11Ei
FN:2012,_ZN7testing8internal6String10FormatByteB5cxx11Eh
FN:2021,_ZN7testing8internal20StringStreamToStringEPNSt7__cxx1118basic_stringstreamIcSt11char_traitsIcESaIcEEE
FN:2040,_ZN7testing8internal17AppendUserMessageERKNSt7__cxx1112basic_stringIcSt11char_traitsIcESaIcEEERKNS_7MessageE
FN:2056,_ZN7testing10TestResultC2Ev
FN:2062,_ZN7testing10TestResultD2Ev
FN:2068,_ZNK7testing10TestResult17GetTestPartResultEi
FN:2077,_ZNK7testing10TestResult15GetTestPropertyEi
FN:2084,_ZN7testing10TestResult20ClearTestPartResultsEv
FN:2089,_ZN7testing10TestResult17AddTestPartResultERKNS_14TestPartResultE
FN:2096,_ZN7testing10TestResult14RecordPropertyERKNSt7__cxx1112basic_stringIcSt11char_traitsIcESaIcEEERKNS_12TestPropertyE
FN:2142,_ZN7testing13ArrayAsVectorILi6EEESt6vectorINSt7__cxx1112basic_stringIcSt11char_traitsIcESaIcEEESaIS7_EERAT__KPKc
FN:2142,_ZN7testing13ArrayAsVectorILi8EEESt6vectorINSt7__cxx1112basic_stringIcSt11char_traitsIcESaIcEEESaIS7_EERAT__KPKc
FN:2146,_ZN7testingL31GetReservedAttributesForElementERKNSt7__cxx1112basic_stringIcSt11char_traitsIcESaIcEEE
FN:2161,_ZN7testingL14FormatWordListERKSt6vectorINSt7__cxx1112basic_stringIcSt11char_traitsIcESaIcEEESaIS6_EE
FN:2175,_ZN7testingL24ValidateTestPropertyNameERKNSt7__cxx1112basic_stringIcSt11char_traitsIcESaIcEEERKSt6vectorIS5_SaIS5_EE
FN:2190,_ZN7testing10TestResult20ValidateTestPropertyERKNSt7__cxx1112basic_stringIcSt11char_traitsIcESaIcEEERKNS_12TestPropertyE
FN:2197,_ZN7testing10TestResult5ClearEv
FN:2205,_ZN7testingL15TestPartSkippedERKNS_14TestPartResultE
FN:2210,_ZNK7testing10TestResult7SkippedEv
FN:2215,_ZNK7testing10TestResult6FailedEv
FN:2224,_ZN7testingL21TestPartFatallyFailedERKNS_14TestPartResultE
FN:2229,_ZNK7testing10TestResult15HasFatalFailureEv
FN:2234,_ZN7testingL24TestPartNonfatallyFailedERKNS_14TestPartResultE
FN:2239,_ZNK7testing10TestResult18HasNonfatalFailureEv
FN:2245,_ZNK7testing10TestResult16total_part_countEv
FN:2250,_ZNK7testing10TestResult19test_property_countEv
FN:2259,_ZN7testing4TestC2Ev
FN:2266,_ZN7testing4TestD0Ev
FN:2266,_ZN7testing4TestD2Ev
FN:2272,_ZN7testing4Test5SetUpEv
FN:2278,_ZN7testing4Test8TearDownEv
FN:2282,_ZN7testing4Test14RecordPropertyERKNSt7__cxx1112basic_stringIcSt11char_traitsIcESaIcEEES8_
FN:2287,_ZN7testing4Test14RecordPropertyERKNSt7__cxx1112basic_stringIcSt11char_traitsIcESaIcEEEi
FN:2295,_ZN7testing8internal30ReportFailureInUnknownLocationENS_14TestPartResult4TypeERKNSt7__cxx1112basic_stringIcSt11char_traitsIcESaIcEEE
FN:2314,_ZN7testing4Test19HasSameFixtureClassEv
FN:2397,_ZN7testing8internalL25FormatCxxExceptionMessageEPKcS2_
FN:2413,_ZN7testing8internal26GoogleTestFailureExceptionC2ERKNS_14TestPartResultE
FN:2428,_ZN7testing8internal38HandleSehExceptionsInMethodIfSupportedINS0_15TestFactoryBaseEPNS_4TestEEET0_PT_MS6_FS5_vEPKc
FN:2428,_ZN7testing8internal38HandleSehExceptionsInMethodIfSupportedINS0_12UnitTestImplEbEET0_PT_MS4_FS3_vEPKc
FN:2428,_ZN7testing8internal38HandleSehExceptionsInMethodIfSupportedINS_4TestEvEET0_PT_MS4_FS3_vEPKc
FN:2428,_ZN7testing8internal38HandleSehExceptionsInMethodIfSupportedINS_8TestCaseEvEET0_PT_MS4_FS3_vEPKc
FN:2455,_ZN7testing8internal35HandleExceptionsInMethodIfSupportedINS_8TestCaseEvEET0_PT_MS4_FS3_vEPKc
FN:2455,_ZN7testing8internal35HandleExceptionsInMethodIfSupportedINS0_12UnitTestImplEbEET0_PT_MS4_FS3_vEPKc
FN:2455,_ZN7testing8internal35HandleExceptionsInMethodIfSupportedINS_4TestEvEET0_PT_MS4_FS3_vEPKc
FN:2455,_ZN7testing8internal35HandleExceptionsInMethodIfSupportedINS0_15TestFactoryBaseEPNS_4TestEEET0_PT_MS6_FS5_vEPKc
FN:2512,_ZN7testing4Test3RunEv
FN:2535,_ZN7testing4Test15HasFatalFailureEv
FN:2540,_ZN7testing4Test18HasNonfatalFailureEv
FN:2546,_ZN7testing4Test9IsSkippedEv
FN:2554,_ZN7testing8TestInfoC2ERKNSt7__cxx1112basic_stringIcSt11char_traitsIcESaIcEEES8_PKcSA_NS_8internal12CodeLocationEPKvPNSB_15TestFactoryBaseE
FN:2573,_ZN7testing8TestInfoD2Ev
FN:2595,_ZN7testing8internal23MakeAndRegisterTestInfoEPKcS2_S2_S2_NS0_12CodeLocationEPKvPFvvES7_PNS0_15TestFactoryBaseE
FN:2612,_ZN7testing8internal25ReportInvalidTestCaseTypeEPKcNS0_12CodeLocationE
FN:2665,_ZN7testing8internal12UnitTestImpl26RegisterParameterizedTestsEv
FN:2676,_ZN7testing8TestInfo3RunEv
FN:2724,_ZNK7testing8TestCase21successful_test_countEv
FN:2729,_ZNK7testing8TestCase18skipped_test_countEv
FN:2734,_ZNK7testing8TestCase17failed_test_countEv
FN:2739,_ZNK7testing8TestCase30reportable_disabled_test_countEv
FN:2744,_ZNK7testing8TestCase19disabled_test_countEv
FN:2749,_ZNK7testing8TestCase21reportable_test_countEv
FN:2754,_ZNK7testing8TestCase17test_to_run_countEv
FN:2759,_ZNK7testing8TestCase16total_test_countEv
FN:2772,_ZN7testing8TestCaseC2EPKcS2_PFvvES4_
FN:2783,_ZN7testing8TestCaseD0Ev
FN:2783,_ZN7testing8TestCaseD2Ev
FN:2790,_ZNK7testing8TestCase11GetTestInfoEi
FN:2797,_ZN7testing8TestCase18GetMutableTestInfoEi
FN:2804,_ZN7testing8TestCase11AddTestInfoEPNS_8TestInfoE
FN:2810,_ZN7testing8TestCase3RunEv
FN:2838,_ZN7testing8TestCase11ClearResultEv
FN:2844,_ZN7testing8TestCase12ShuffleTestsEPNS_8internal6RandomE
FN:2849,_ZN7testing8TestCase14UnshuffleTestsEv
FN:2860,_ZN7testingL19FormatCountableNounEiPKcS1_
FN:2868,_ZN7testingL15FormatTestCountEi
FN:2873,_ZN7testingL19FormatTestCaseCountEi
FN:2881,_ZN7testingL26TestPartResultTypeToStringENS_14TestPartResult4TypeE
FN:2903,_ZN7testing8internalL27PrintTestPartResultToStringERKNS_14TestPartResultE
FN:2913,_ZN7testing8internalL19PrintTestPartResultERKNS_14TestPartResultE
FN:2980,_ZN7testing8internalL16GetAnsiColorCodeENS0_10GTestColorE
FN:2993,_ZN7testing8internal14ShouldUseColorEb
FN:3033,_ZN7testing8internal13ColoredPrintfENS0_10GTestColorEPKcz
FN:3087,_ZN7testing8internalL29PrintFullTestCommentIfPresentERKNS_8TestInfoE
FN:3108,_ZN7testing8internal27PrettyUnitTestResultPrinterC2Ev
FN:3109,_ZN7testing8internal27PrettyUnitTestResultPrinter13PrintTestNameEPKcS3_
FN:3114,_ZN7testing8internal27PrettyUnitTestResultPrinter18OnTestProgramStartERKNS_8UnitTestE
FN:3117,_ZN7testing8internal27PrettyUnitTestResultPrinter22OnEnvironmentsSetUpEndERKNS_8UnitTestE
FN:3124,_ZN7testing8internal27PrettyUnitTestResultPrinter25OnEnvironmentsTearDownEndERKNS_8UnitTestE
FN:3126,_ZN7testing8internal27PrettyUnitTestResultPrinter16OnTestProgramEndERKNS_8UnitTestE
FN:3134,_ZN7testing8internal27PrettyUnitTestResultPrinter20OnTestIterationStartERKNS_8UnitTestEi
FN:3169,_ZN7testing8internal27PrettyUnitTestResultPrinter24OnEnvironmentsSetUpStartERKNS_8UnitTestE
FN:3176,_ZN7testing8internal27PrettyUnitTestResultPrinter15OnTestCaseStartERKNS_8TestCaseE
FN:3189,_ZN7testing8internal27PrettyUnitTestResultPrinter11OnTestStartERKNS_8TestInfoE
FN:3197,_ZN7testing8internal27PrettyUnitTestResultPrinter16OnTestPartResultERKNS_14TestPartResultE
FN:3213,_ZN7testing8internal27PrettyUnitTestResultPrinter9OnTestEndERKNS_8TestInfoE
FN:3234,_ZN7testing8internal27PrettyUnitTestResultPrinter13OnTestCaseEndERKNS_8TestCaseE
FN:3246,_ZN7testing8internal27PrettyUnitTestResultPrinter27OnEnvironmentsTearDownStartERKNS_8UnitTestE
FN:3254,_ZN7testing8internal27PrettyUnitTestResultPrinter16PrintFailedTestsERKNS_8UnitTestE
FN:3279,_ZN7testing8internal27PrettyUnitTestResultPrinter17PrintSkippedTestsERKNS_8UnitTestE
FN:3302,_ZN7testing8internal27PrettyUnitTestResultPrinter18OnTestIterationEndERKNS_8UnitTestEi
FN:3354,_ZN7testing8internal17TestEventRepeaterC2Ev
FN:3361,_ZNK7testing8internal17TestEventRepeater18forwarding_enabledEv
FN:3362,_ZN7testing8internal17TestEventRepeater22set_forwarding_enabledEb
FN:3388,_ZN7testing8internal17TestEventRepeaterD0Ev
FN:3388,_ZN7testing8internal17TestEventRepeaterD2Ev
FN:3392,_ZN7testing8internal17TestEventRepeater6AppendEPNS_17TestEventListenerE
FN:3397,_ZN7testing8internal17TestEventRepeater7ReleaseEPNS_17TestEventListenerE
FN:3429,_ZN7testing8internal17TestEventRepeater18OnTestProgramStartERKNS_8UnitTestE
FN:3430,_ZN7testing8internal17TestEventRepeater24OnEnvironmentsSetUpStartERKNS_8UnitTestE
FN:3431,_ZN7testing8internal17TestEventRepeater15OnTestCaseStartERKNS_8TestCaseE
FN:3432,_ZN7testing8internal17TestEventRepeater11OnTestStartERKNS_8TestInfoE
FN:3433,_ZN7testing8internal17TestEventRepeater16OnTestPartResultERKNS_14TestPartResultE
FN:3434,_ZN7testing8internal17TestEventRepeater27OnEnvironmentsTearDownStartERKNS_8UnitTestE
FN:3435,_ZN7testing8internal17TestEventRepeater22OnEnvironmentsSetUpEndERKNS_8UnitTestE
FN:3436,_ZN7testing8internal17TestEventRepeater25OnEnvironmentsTearDownEndERKNS_8UnitTestE
FN:3437,_ZN7testing8internal17TestEventRepeater9OnTestEndERKNS_8TestInfoE
FN:3438,_ZN7testing8internal17TestEventRepeater13OnTestCaseEndERKNS_8TestCaseE
FN:3439,_ZN7testing8internal17TestEventRepeater16OnTestProgramEndERKNS_8UnitTestE
FN:3444,_ZN7testing8internal17TestEventRepeater20OnTestIterationStartERKNS_8UnitTestEi
FN:3453,_ZN7testing8internal17TestEventRepeater18OnTestIterationEndERKNS_8UnitTestEi
FN:3479,_ZN7testing8internal24XmlUnitTestResultPrinter24IsNormalizableWhitespaceEc
FN:3484,_ZN7testing8internal24XmlUnitTestResultPrinter19IsValidXmlCharacterEc
FN:3498,_ZN7testing8internal24XmlUnitTestResultPrinter18EscapeXmlAttributeERKNSt7__cxx1112basic_stringIcSt11char_traitsIcESaIcEEE
FN:3548,_ZN7testing8internal24XmlUnitTestResultPrinterC2EPKc
FN:3556,_ZN7testing8internal24XmlUnitTestResultPrinter18OnTestIterationEndERKNS_8UnitTestEi
FN:3565,_ZN7testing8internal24XmlUnitTestResultPrinter23ListTestsMatchingFilterERKSt6vectorIPNS_8TestCaseESaIS4_EE
FN:3586,_ZN7testing8internal24XmlUnitTestResultPrinter9EscapeXmlERKNSt7__cxx1112basic_stringIcSt11char_traitsIcESaIcEEEb
FN:3632,_ZN7testing8internal24XmlUnitTestResultPrinter26RemoveInvalidXmlCharactersERKNSt7__cxx1112basic_stringIcSt11char_traitsIcESaIcEEE
FN:3661,_ZN7testing8internal27FormatTimeInMillisAsSecondsB5cxx11Ex
FN:3667,_ZN7testing8internalL17PortableLocaltimeElP2tm
FN:3684,_ZN7testing8internal32FormatEpochTimeInMillisAsIso8601B5cxx11Ex
FN:3698,_ZN7testing8internal24XmlUnitTestResultPrinter21OutputXmlCDataSectionEPSoPKc
FN:3717,_ZN7testing8internal24XmlUnitTestResultPrinter18OutputXmlAttributeEPSoRKNSt7__cxx1112basic_stringIcSt11char_traitsIcESaIcEEESA_SA_
FN:3735,_ZN7testing8internal24XmlUnitTestResultPrinter17OutputXmlTestInfoEPSoPKcRKNS_8TestInfoE
FN:3802,_ZN7testing8internal24XmlUnitTestResultPrinter16PrintXmlTestCaseEPSoRKNS_8TestCaseE
FN:3829,_ZN7testing8internal24XmlUnitTestResultPrinter16PrintXmlUnitTestEPSoRKNS_8UnitTestE
FN:3866,_ZN7testing8internal24XmlUnitTestResultPrinter17PrintXmlTestsListEPSoRKSt6vectorIPNS_8TestCaseESaIS5_EE
FN:3890,_ZN7testing8internal24XmlUnitTestResultPrinter29TestPropertiesAsXmlAttributesB5cxx11ERKNS_10TestResultE
FN:3901,_ZN7testing8internal24XmlUnitTestResultPrinter23OutputXmlTestPropertiesEPSoRKNS_10TestResultE
FN:3978,_ZN7testing8internal25JsonUnitTestResultPrinterC2EPKc
FN:3985,_ZN7testing8internal25JsonUnitTestResultPrinter18OnTestIterationEndERKNS_8UnitTestEi
FN:3995,_ZN7testing8internal25JsonUnitTestResultPrinter10EscapeJsonERKNSt7__cxx1112basic_stringIcSt11char_traitsIcESaIcEEE
FN:4038,_ZN7testing8internalL28FormatTimeInMillisAsDurationEx
FN:4046,_ZN7testing8internalL32FormatEpochTimeInMillisAsRFC3339Ex
FN:4059,_ZN7testing8internalL6IndentEi
FN:4063,_ZN7testing8internal25JsonUnitTestResultPrinter13OutputJsonKeyEPSoRKNSt7__cxx1112basic_stringIcSt11char_traitsIcESaIcEEESA_SA_SA_b
FN:4083,_ZN7testing8internal25JsonUnitTestResultPrinter13OutputJsonKeyEPSoRKNSt7__cxx1112basic_stringIcSt11char_traitsIcESaIcEEESA_iSA_b
FN:4104,_ZN7testing8internal25JsonUnitTestResultPrinter18OutputJsonTestInfoEPSoPKcRKNS_8TestInfoE
FN:4162,_ZN7testing8internal25JsonUnitTestResultPrinter17PrintJsonTestCaseEPSoRKNS_8TestCaseE
FN:4201,_ZN7testing8internal25JsonUnitTestResultPrinter17PrintJsonUnitTestEPSoRKNS_8UnitTestE
FN:4246,_ZN7testing8internal25JsonUnitTestResultPrinter17PrintJsonTestListEPSoRKSt6vectorIPNS_8TestCaseESaIS5_EE
FN:4273,_ZN7testing8internal25JsonUnitTestResultPrinter20TestPropertiesAsJsonERKNS_10TestResultERKNSt7__cxx1112basic_stringIcSt11char_traitsIcESaIcEEE
FN:4293,_ZN7testing8internal17StreamingListener9UrlEncodeB5cxx11EPKc
FN:4312,_ZN7testing8internal17StreamingListener12SocketWriter14MakeConnectionEv
FN:4361,_ZN7testing8internal18OsStackTraceGetter17CurrentStackTraceB5cxx11Eii
FN:4411,_ZN7testing8internal18OsStackTraceGetter16UponLeavingGTestEv
FN:4427,_ZN7testing8internal23ScopedPrematureExitFileC2EPKc
FN:4441,_ZN7testing8internal23ScopedPrematureExitFileD2Ev
FN:4462,_ZN7testing18TestEventListenersC2Ev
FN:4467,_ZN7testing18TestEventListenersD2Ev
FN:4473,_ZN7testing18TestEventListeners6AppendEPNS_17TestEventListenerE
FN:4480,_ZN7testing18TestEventListeners7ReleaseEPNS_17TestEventListenerE
FN:4490,_ZN7testing18TestEventListeners8repeaterEv
FN:4497,_ZN7testing18TestEventListeners23SetDefaultResultPrinterEPNS_17TestEventListenerE
FN:4512,_ZN7testing18TestEventListeners22SetDefaultXmlGeneratorEPNS_17TestEventListenerE
FN:4524,_ZNK7testing18TestEventListeners22EventForwardingEnabledEv
FN:4528,_ZN7testing18TestEventListeners23SuppressEventForwardingEv
FN:4541,_ZN7testing8UnitTest11GetInstanceEv
FN:4556,_ZNK7testing8UnitTest26successful_test_case_countEv
FN:4561,_ZNK7testing8UnitTest22failed_test_case_countEv
FN:4566,_ZNK7testing8UnitTest21total_test_case_countEv
FN:4572,_ZNK7testing8UnitTest22test_case_to_run_countEv
FN:4577,_ZNK7testing8UnitTest21successful_test_countEv
FN:4582,_ZNK7testing8UnitTest18skipped_test_countEv
FN:4587,_ZNK7testing8UnitTest17failed_test_countEv
FN:4590,_ZNK7testing8UnitTest30reportable_disabled_test_countEv
FN:4595,_ZNK7testing8UnitTest19disabled_test_countEv
FN:4600,_ZNK7testing8UnitTest21reportable_test_countEv
FN:4605,_ZNK7testing8UnitTest16total_test_countEv
FN:4608,_ZNK7testing8UnitTest17test_to_run_countEv
FN:4612,_ZNK7testing8UnitTest15start_timestampEv
FN:4617,_ZNK7testing8UnitTest12elapsed_timeEv
FN:4622,_ZNK7testing8UnitTest6PassedEv
FN:4626,_ZNK7testing8UnitTest6FailedEv
FN:4630,_ZNK7testing8UnitTest11GetTestCaseEi
FN:4636,_ZNK7testing8UnitTest18ad_hoc_test_resultEv
FN:4642,_ZN7testing8UnitTest18GetMutableTestCaseEi
FN:4648,_ZN7testing8UnitTest9listenersEv
FN:4662,_ZN7testing8UnitTest14AddEnvironmentEPNS_11EnvironmentE
FN:4675,_ZN7testing8UnitTest17AddTestPartResultENS_14TestPartResult4TypeEPKciRKNSt7__cxx1112basic_stringIcSt11char_traitsIcESaIcEEESC_
FN:4747,_ZN7testing8UnitTest14RecordPropertyERKNSt7__cxx1112basic_stringIcSt11char_traitsIcESaIcEEES8_
FN:4757,_ZN7testing8UnitTest3RunEv
FN:4832,_ZNK7testing8UnitTest20original_working_dirEv
FN:4838,_ZNK7testing8UnitTest17current_test_caseEv
FN:4846,_ZNK7testing8UnitTest17current_test_infoEv
FN:4853,_ZNK7testing8UnitTest11random_seedEv
FN:4858,_ZN7testing8UnitTest27parameterized_test_registryEv
FN:4864,_ZN7testing8UnitTestC2Ev
FN:4869,_ZN7testing8UnitTestD2Ev
FN:4869,_ZN7testing8UnitTestD0Ev
FN:4875,_ZN7testing8UnitTest14PushGTestTraceERKNS_8internal9TraceInfoE
FN:4882,_ZN7testing8UnitTest13PopGTestTraceEv
FN:4890,_ZN7testing8internal12UnitTestImplC2EPNS_8UnitTestE
FN:4919,_ZN7testing8internal12UnitTestImplD0Ev
FN:4919,_ZN7testing8internal12UnitTestImplD2Ev
FN:4934,_ZN7testing8internal12UnitTestImpl14RecordPropertyERKNS_12TestPropertyE
FN:4954,_ZN7testing8internal12UnitTestImpl32SuppressTestEventsIfInSubprocessEv
FN:4962,_ZN7testing8internal12UnitTestImpl18ConfigureXmlOutputEv
FN:4979,_ZN7testing8internal12UnitTestImpl24ConfigureStreamingOutputEv
FN:4999,_ZN7testing8internal12UnitTestImpl19PostFlagParsingInitEv
FN:5048,_ZN7testing8internal14TestCaseNameIsC2ERKNSt7__cxx1112basic_stringIcSt11char_traitsIcESaIcEEE
FN:5052,_ZNK7testing8internal14TestCaseNameIsclEPKNS_8TestCaseE
FN:5073,_ZN7testing8internal12UnitTestImpl11GetTestCaseEPKcS3_PFvvES5_
FN:5110,_ZN7testing8internalL16SetUpEnvironmentEPNS_11EnvironmentE
FN:5111,_ZN7testing8internalL19TearDownEnvironmentEPNS_11EnvironmentE
FN:5122,_ZN7testing8internal12UnitTestImpl11RunAllTestsEv
FN:5274,_ZN7testing8internal30WriteToShardStatusFileIfNeededEv
FN:5296,_ZN7testing8internal11ShouldShardEPKcS2_b
FN:5341,_ZN7testing8internal17Int32FromEnvOrDieEPKci
FN:5359,_ZN7testing8internal20ShouldRunTestOnShardEiii
FN:5370,_ZN7testing8internal12UnitTestImpl11FilterTestsENS1_18ReactionToShardingE
FN:5428,_ZN7testing8internalL14PrintOnOneLineEPKci
FN:5447,_ZN7testing8internal12UnitTestImpl23ListTestsMatchingFilterEv
FN:5506,_ZN7testing8internal12UnitTestImpl25set_os_stack_trace_getterEPNS0_27OsStackTraceGetterInterfaceE
FN:5517,_ZN7testing8internal12UnitTestImpl21os_stack_trace_getterEv
FN:5530,_ZN7testing8internal12UnitTestImpl19current_test_resultEv
FN:5542,_ZN7testing8internal12UnitTestImpl12ShuffleTestsEv
FN:5557,_ZN7testing8internal12UnitTestImpl14UnshuffleTestsEv
FN:5576,_ZN7testing8internal31GetCurrentOsStackTraceExceptTopB5cxx11EPNS_8UnitTestEi
FN:5589,_ZN7testing8internal6IsTrueEb
FN:5591,_ZN7testing8internal10AlwaysTrueEv
FN:5604,_ZN7testing8internal10SkipPrefixEPKcPS2_
FN:5618,_ZN7testing8internalL14ParseFlagValueEPKcS2_b
FN:5655,_ZN7testing8internalL13ParseBoolFlagEPKcS2_Pb
FN:5672,_ZN7testing8internal14ParseInt32FlagEPKcS2_Pi
FN:5690,_ZN7testing8internalL15ParseStringFlagINSt7__cxx1112basic_stringIcSt11char_traitsIcESaIcEEEEEbPKcS9_PT_
FN:5708,_ZN7testing8internalL23HasGoogleTestFlagPrefixEPKc
FN:5728,_ZN7testing8internalL17PrintColorEncodedEPKc
FN:5827,_ZN7testing8internalL19ParseGoogleTestFlagEPKc
FN:5858,_ZN7testing8internalL17LoadFlagsFromFileERKNSt7__cxx1112basic_stringIcSt11char_traitsIcESaIcEEE
FN:5881,_ZN7testing8internal28ParseGoogleTestFlagsOnlyImplIwEEvPiPPT_
FN:5881,_ZN7testing8internal28ParseGoogleTestFlagsOnlyImplIcEEvPiPPT_
FN:5934,_ZN7testing8internal24ParseGoogleTestFlagsOnlyEPiPPc
FN:5948,_ZN7testing8internal24ParseGoogleTestFlagsOnlyEPiPPw
FN:5957,_ZN7testing8internal18InitGoogleTestImplIcEEvPiPPT_
FN:5957,_ZN7testing8internal18InitGoogleTestImplIwEEvPiPPT_
FN:5987,_ZN7testing14InitGoogleTestEPiPPc
FN:5997,_ZN7testing14InitGoogleTestEPiPPw
FN:6005,_ZN7testing7TempDirB5cxx11Ev
FN:6031,_ZN7testing11ScopedTrace9PushTraceEPKciNSt7__cxx1112basic_stringIcSt11char_traitsIcESaIcEEE
FN:6041,_ZN7testing11ScopedTraceD2Ev
FNDA:0,_ZN7testing8internal12AssertHelperD2Ev
FNDA:8,_ZN7testing8internal27PrettyUnitTestResultPrinter27OnEnvironmentsTearDownStartERKNS_8UnitTestE
FNDA:0,_ZN7testing8internal6Random8GenerateEj
FNDA:16,_ZN7testing8UnitTest9listenersEv
FNDA:0,_ZN7testing8internalL17LoadFlagsFromFileERKNSt7__cxx1112basic_stringIcSt11char_traitsIcESaIcEEE
FNDA:8,_ZN7testing8internal14ShouldUseColorEb
FNDA:8,_ZN7testing4TestD2Ev
FNDA:0,_ZN7testing15AssertionResult4swapERS0_
FNDA:40,_ZN7testing8internal15UnitTestOptions13MatchesFilterERKNSt7__cxx1112basic_stringIcSt11char_traitsIcESaIcEEEPKc
FNDA:0,_ZN7testingL26TestPartResultTypeToStringENS_14TestPartResult4TypeE
FNDA:8,_ZN7testing8internal27PrettyUnitTestResultPrinter11OnTestStartERKNS_8TestInfoE
FNDA:136,_ZN7testing8internal24XmlUnitTestResultPrinter18EscapeXmlAttributeERKNSt7__cxx1112basic_stringIcSt11char_traitsIcESaIcEEE
FNDA:0,_ZN7testing8internal13edit_distance12_GLOBAL__N_14HunkC2Emm
FNDA:8,_ZN7testing8internal27PrettyUnitTestResultPrinter16OnTestProgramEndERKNS_8UnitTestE
FNDA:8,_ZN7testing8TestCaseD0Ev
FNDA:0,_ZN7testing8internal6String15ShowWideCStringB5cxx11EPKw
FNDA:8,_ZN7testing8internal35DefaultGlobalTestPartResultReporterC2EPNS0_12UnitTestImplE
FNDA:8,_ZN7testing8TestCase14UnshuffleTestsEv
FNDA:0,_ZNK7testing8TestCase19disabled_test_countEv
FNDA:8,_ZN7testing8internal15UnitTestOptions27GetAbsolutePathToOutputFileB5cxx11Ev
FNDA:0,_ZN7testing8internal17StreamingListener9UrlEncodeB5cxx11EPKc
FNDA:16,_ZNK7testing8internal12UnitTestImpl30reportable_disabled_test_countEv
FNDA:1232,_ZN7testing8internal24XmlUnitTestResultPrinter24IsNormalizableWhitespaceEc
FNDA:8,_ZN7testing8TestCaseC2EPKcS2_PFvvES4_
FNDA:8,_ZNK7testing8internal12UnitTestImpl21successful_test_countEv
FNDA:0,_ZN7testing8internal12UnitTestImpl31GetGlobalTestPartResultReporterEv
FNDA:0,_ZN7testing32ScopedFakeTestPartResultReporter20ReportTestPartResultERKNS_14TestPartResultE
FNDA:8,_ZN7testing8internalL17PortableLocaltimeElP2tm
FNDA:0,_ZNK7testing8UnitTest6FailedEv
FNDA:0,_ZN7testing8internal12AssertHelperC2ENS_14TestPartResult4TypeEPKciS5_
FNDA:0,_ZN7testing8internal12UnitTestImpl31SetGlobalTestPartResultReporterEPNS_31TestPartResultReporterInterfaceE
FNDA:0,_ZN7testing8internalL13HasOneFailureEPKcS2_S2_RKNS_19TestPartResultArrayENS_14TestPartResult4TypeERKNSt7__cxx1112basic_stringIcSt11char_traitsIcESaIcEEE
FNDA:48,_ZN7testing13ArrayAsVectorILi6EEESt6vectorINSt7__cxx1112basic_stringIcSt11char_traitsIcESaIcEEESaIS7_EERAT__KPKc
FNDA:0,_ZN7testing8internal25JsonUnitTestResultPrinter10EscapeJsonERKNSt7__cxx1112basic_stringIcSt11char_traitsIcESaIcEEE
FNDA:0,_ZN7testing14IsNotSubstringEPKcS1_S1_S1_
FNDA:176,_ZN7testing8UnitTest11GetInstanceEv
FNDA:8,_ZN7testing8internal24XmlUnitTestResultPrinterC2EPKc
FNDA:0,_ZN7testing8internal13edit_distance21CalculateOptimalEditsERKSt6vectorINSt7__cxx1112basic_stringIcSt11char_traitsIcESaIcEEESaIS8_EESC_
FNDA:0,_ZN7testing12_GLOBAL__N_115IsSubstringPredEPKcS2_
FNDA:8,_ZN7testing8internal38HandleSehExceptionsInMethodIfSupportedINS0_15TestFactoryBaseEPNS_4TestEEET0_PT_MS6_FS5_vEPKc
FNDA:0,_ZN7testing11IsSubstringEPKcS1_PKwS3_
FNDA:8,_ZN7testing8internal17TestEventRepeater9OnTestEndERKNS_8TestInfoE
FNDA:144,_ZN7testing8internal6IsTrueEb
FNDA:0,_ZN7testing10TestResult17AddTestPartResultERKNS_14TestPartResultE
FNDA:16,_ZN7testing8internal12UnitTestImpl19PostFlagParsingInitEv
FNDA:16,_ZN7testing8internal15UnitTestOptions15GetOutputFormatB5cxx11Ev
FNDA:8,_ZNK7testing8UnitTest18skipped_test_countEv
FNDA:72,_ZN7testing8internalL19SumOverTestCaseListERKSt6vectorIPNS_8TestCaseESaIS3_EEMS2_KFivE
FNDA:0,_ZN7testing8internalL25FormatCxxExceptionMessageEPKcS2_
FNDA:0,_ZN7testing4TestD0Ev
FNDA:8,_ZN7testing8UnitTestD2Ev
FNDA:8,_ZNK7testing8UnitTest18ad_hoc_test_resultEv
FNDA:8,_ZN7testing18TestEventListeners22SetDefaultXmlGeneratorEPNS_17TestEventListenerE
FNDA:0,_ZN7testing8internal20IsUtf16SurrogatePairEww
FNDA:0,_ZN7testing8internal11CmpHelperGTEPKcS2_xx
FNDA:16,_ZNK7testing8internal12UnitTestImpl22failed_test_case_countEv
FNDA:0,_ZN7testing8internal25JsonUnitTestResultPrinter18OutputJsonTestInfoEPSoPKcRKNS_8TestInfoE
FNDA:16,_ZNK7testing8UnitTest12elapsed_timeEv
FNDA:24,_ZNK7testing10TestResult19test_property_countEv
FNDA:8,_ZN7testing8internal18InitGoogleTestImplIcEEvPiPPT_
FNDA:0,_ZN7testing7MessagelsEPKw
FNDA:0,_ZN7testing8internalL28FormatTimeInMillisAsDurationEx
FNDA:8,_ZN7testing18TestEventListenersD2Ev
FNDA:32,_ZN7testing8internal17Int32FromEnvOrDieEPKci
FNDA:16,_ZN7testing8internal24XmlUnitTestResultPrinter29TestPropertiesAsXmlAttributesB5cxx11ERKNS_10TestResultE
FNDA:0,_ZN7testing32ScopedFakeTestPartResultReporter4InitEv
FNDA:32,_ZN7testing8internal6String13CStringEqualsEPKcS3_
FNDA:8,_ZN7testing14InitGoogleTestEPiPPc
FNDA:0,_ZN7testing8internal25ReportInvalidTestCaseTypeEPKcNS0_12CodeLocationE
FNDA:0,_ZN7testing8UnitTest18GetMutableTestCaseEi
FNDA:0,_ZN7testing8internal28ParseGoogleTestFlagsOnlyImplIwEEvPiPPT_
FNDA:0,_ZN7testingL21TestPartFatallyFailedERKNS_14TestPartResultE
FNDA:0,_ZN7testing11IsSubstringEPKcS1_RKNSt7__cxx1112basic_stringIwSt11char_traitsIwESaIwEEES9_
FNDA:0,_ZN7testing8internal24ParseGoogleTestFlagsOnlyEPiPPw
FNDA:24,_ZNK7testing8TestCase30reportable_disabled_test_countEv
FNDA:8,_ZN7testing8internal17TestEventRepeater16OnTestProgramEndERKNS_8UnitTestE
FNDA:8,_ZN7testing8internal24XmlUnitTestResultPrinter18OnTestIterationEndERKNS_8UnitTestEi
FNDA:8,_ZN7testing8internal27PrettyUnitTestResultPrinter15OnTestCaseStartERKNS_8TestCaseE
FNDA:0,_ZN7testing12_GLOBAL__N_115IsSubstringPredINSt7__cxx1112basic_stringIcSt11char_traitsIcESaIcEEEEEbRKT_SA_
FNDA:0,_ZN7testing8internalL6IndentEi
FNDA:0,_ZNK7testing8internal17TestEventRepeater18forwarding_enabledEv
FNDA:0,_ZN7testing12_GLOBAL__N_115IsSubstringImplIPKwEENS_15AssertionResultEbPKcS6_RKT_S9_
FNDA:0,_ZN7testing8internal24XmlUnitTestResultPrinter17PrintXmlTestsListEPSoRKSt6vectorIPNS_8TestCaseESaIS5_EE
FNDA:136,_ZNK7testing10TestResult16total_part_countEv
FNDA:0,_ZN7testing8internal6String32CaseInsensitiveWideCStringEqualsEPKwS3_
FNDA:0,_ZNK7testing18TestEventListeners22EventForwardingEnabledEv
FNDA:8,_ZN7testing8TestCase11AddTestInfoEPNS_8TestInfoE
FNDA:8,_ZN7testing8TestInfo3RunEv
FNDA:16,_ZN7testing8internal17TestEventRepeater6AppendEPNS_17TestEventListenerE
FNDA:0,_ZN7testing14IsNotSubstringEPKcS1_RKNSt7__cxx1112basic_stringIwSt11char_traitsIwESaIwEEES9_
FNDA:16,_ZNK7testing8UnitTest21total_test_case_countEv
FNDA:8,_ZN7testing8internal35HandleExceptionsInMethodIfSupportedINS0_12UnitTestImplEbEET0_PT_MS4_FS3_vEPKc
FNDA:600,_ZNK7testing7Message9GetStringB5cxx11Ev
FNDA:136,_ZN7testing8internal24XmlUnitTestResultPrinter18OutputXmlAttributeEPSoRKNSt7__cxx1112basic_stringIcSt11char_traitsIcESaIcEEESA_SA_
FNDA:8,_ZN7testing8internal28ParseGoogleTestFlagsOnlyImplIcEEvPiPPT_
FNDA:40,_ZN7testing8internal6String15FormatIntWidth2B5cxx11Ei
FNDA:8,_ZN7testing8internal27PrettyUnitTestResultPrinter18OnTestIterationEndERKNS_8UnitTestEi
FNDA:32,_ZNK7testing8TestCase17test_to_run_countEv
FNDA:8,_ZNK7testing8UnitTest15start_timestampEv
FNDA:0,_ZNK7testing8internal13edit_distance12_GLOBAL__N_14Hunk9has_editsEv
FNDA:0,_ZNK7testing8UnitTest20original_working_dirEv
FNDA:8,_ZN7testing8internalL19ParseGoogleTestFlagEPKc
FNDA:0,_ZN7testing12_GLOBAL__N_115IsSubstringPredEPKwS2_
FNDA:0,_ZN7testing8internal17TestEventRepeater16OnTestPartResultERKNS_14TestPartResultE
FNDA:8,_ZN7testing8TestInfoD2Ev
FNDA:0,_ZN7testing8internal12UnitTestImpl12ShuffleTestsEv
FNDA:24,_ZN7testing10TestResultC2Ev
FNDA:0,_ZN7testing8internal25JsonUnitTestResultPrinter17PrintJsonUnitTestEPSoRKNS_8UnitTestE
FNDA:0,_ZN7testing8internal24XmlUnitTestResultPrinter23OutputXmlTestPropertiesEPSoRKNS_10TestResultE
FNDA:0,_ZN7testingL24ValidateTestPropertyNameERKNSt7__cxx1112basic_stringIcSt11char_traitsIcESaIcEEERKSt6vectorIS5_SaIS5_EE
FNDA:8,_ZN7testing8internal12UnitTestImpl32SuppressTestEventsIfInSubprocessEv
FNDA:8,_ZN7testing8internal27PrettyUnitTestResultPrinter18OnTestProgramStartERKNS_8UnitTestE
FNDA:0,_ZN7testing8internal9EqFailureEPKcS2_RKNSt7__cxx1112basic_stringIcSt11char_traitsIcESaIcEEESA_b
FNDA:24,_ZN7testing10TestResultD2Ev
FNDA:32,_ZNK7testing8TestCase16total_test_countEv
FNDA:16,_ZNK7testing8UnitTest11GetTestCaseEi
FNDA:0,_ZN7testing8internal12UnitTestImpl14RecordPropertyERKNS_12TestPropertyE
FNDA:0,_ZN7testing8UnitTest13PopGTestTraceEv
FNDA:56,_ZN7testing8internal15GetTimeInMillisEv
FNDA:0,_ZN7testing7TempDirB5cxx11Ev
FNDA:40,_ZN7testing8internalL15ParseStringFlagINSt7__cxx1112basic_stringIcSt11char_traitsIcESaIcEEEEEbPKcS9_PT_
FNDA:8,_ZN7testingL16GetDefaultFilterEv
FNDA:0,_ZNK7testing8UnitTest19disabled_test_countEv
FNDA:8,_ZN7testing8internal27PrettyUnitTestResultPrinter20OnTestIterationStartERKNS_8UnitTestEi
FNDA:0,_ZN7testing8internal26GoogleTestFailureExceptionC2ERKNS_14TestPartResultE
FNDA:0,_ZN7testing14InitGoogleTestEPiPPw
FNDA:0,_ZN7testing8internal20DoubleNearPredFormatEPKcS2_S2_ddd
FNDA:0,_ZNK7testing8UnitTest11random_seedEv
FNDA:0,_ZN7testing11ScopedTraceD2Ev
FNDA:0,_ZN7testing16AssertionSuccessEv
FNDA:0,_ZN7testing32ScopedFakeTestPartResultReporterC2EPNS_19TestPartResultArrayE
FNDA:16,_ZN7testing8internal27PrettyUnitTestResultPrinter13PrintTestNameEPKcS3_
FNDA:8,_ZN7testing8internal12UnitTestImpl11RunAllTestsEv
FNDA:8,_ZN7testing18TestEventListeners23SetDefaultResultPrinterEPNS_17TestEventListenerE
FNDA:8,_ZN7testing8internal27PrettyUnitTestResultPrinterC2Ev
FNDA:0,_ZN7testing8DoubleLEEPKcS1_dd
FNDA:0,_ZN7testing8internal11CmpHelperLEEPKcS2_xx
FNDA:0,_ZN7testing8internal24GetCurrentExecutableNameEv
FNDA:0,_ZN7testing8UnitTest17AddTestPartResultENS_14TestPartResult4TypeEPKciRKNSt7__cxx1112basic_stringIcSt11char_traitsIcESaIcEEESC_
FNDA:0,_ZN7testing8internalL29PrintFullTestCommentIfPresentERKNS_8TestInfoE
FNDA:0,_ZN7testing8internalL14PrintOnOneLineEPKci
FNDA:8,_ZN7testing8internal27PrettyUnitTestResultPrinter22OnEnvironmentsSetUpEndERKNS_8UnitTestE
FNDA:0,_ZN7testing8internalL32FormatEpochTimeInMillisAsRFC3339Ex
FNDA:16,_ZNK7testing8internal12UnitTestImpl22test_case_to_run_countEv
FNDA:0,_ZN7testing8internal25JsonUnitTestResultPrinter20TestPropertiesAsJsonERKNS_10TestResultERKNSt7__cxx1112basic_stringIcSt11char_traitsIcESaIcEEE
FNDA:0,_ZN7testing8internalL27PrintTestPartResultToStringERKNS_14TestPartResultE
FNDA:24,_ZNK7testing10TestResult15HasFatalFailureEv
FNDA:8,_ZNK7testing8UnitTest6PassedEv
FNDA:0,_ZNK7testing8internal12UnitTestImpl16total_test_countEv
FNDA:0,_ZN7testing8internal24XmlUnitTestResultPrinter23ListTestsMatchingFilterERKSt6vectorIPNS_8TestCaseESaIS4_EE
FNDA:8,_ZN7testing8internal24XmlUnitTestResultPrinter16PrintXmlTestCaseEPSoRKNS_8TestCaseE
FNDA:0,_ZN7testing8internal11CmpHelperNEEPKcS2_xx
FNDA:8,_ZN7testing8internal27PrettyUnitTestResultPrinter13OnTestCaseEndERKNS_8TestCaseE
FNDA:0,_ZN7testing8internal18CmpHelperSTRCASENEEPKcS2_S2_S2_
FNDA:8,_ZN7testing8TestCase18GetMutableTestInfoEi
FNDA:8,_ZN7testing8internal17TestEventRepeater11OnTestStartERKNS_8TestInfoE
FNDA:16,_ZN7testing8internal8GetArgvsB5cxx11Ev
FNDA:8,_ZN7testing8internal27PrettyUnitTestResultPrinter9OnTestEndERKNS_8TestInfoE
FNDA:8,_ZN7testing8internal38HandleSehExceptionsInMethodIfSupportedINS0_12UnitTestImplEbEET0_PT_MS4_FS3_vEPKc
FNDA:16,_ZNK7testing8internal12UnitTestImpl17failed_test_countEv
FNDA:0,_ZNK7testing8internal12UnitTestImpl19disabled_test_countEv
FNDA:8,_ZN7testing8internal17TestEventRepeaterC2Ev
FNDA:128,_ZNK7testing10TestResult6FailedEv
FNDA:0,_ZNK7testing8internal12AssertHelperaSERKNS_7MessageE
FNDA:16,_ZN7testing8internal35HandleExceptionsInMethodIfSupportedINS_8TestCaseEvEET0_PT_MS4_FS3_vEPKc
FNDA:8,_ZN7testing8internal17TestEventRepeater18OnTestIterationEndERKNS_8UnitTestEi
FNDA:8,_ZN7testing4TestC2Ev
FNDA:0,_ZN7testing8internalL23HasGoogleTestFlagPrefixEPKc
FNDA:0,_ZNK7testing15AssertionResultntEv
FNDA:16,_ZN7testing4Test9IsSkippedEv
FNDA:0,_ZN7testing8internal17AppendUserMessageERKNSt7__cxx1112basic_stringIcSt11char_traitsIcESaIcEEERKNS_7MessageE
FNDA:16,_ZN7testingL19FormatTestCaseCountEi
FNDA:0,_ZN7testing4Test14RecordPropertyERKNSt7__cxx1112basic_stringIcSt11char_traitsIcESaIcEEES8_
FNDA:0,_ZN7testing8internalL17PrintColorEncodedEPKc
FNDA:0,_ZN7testing8internal15FloatingPointLEIfEENS_15AssertionResultEPKcS4_T_S5_
FNDA:0,_ZN7testing8internal27PrettyUnitTestResultPrinter16PrintFailedTestsERKNS_8UnitTestE
FNDA:0,_ZNK7testing8UnitTest26successful_test_case_countEv
FNDA:0,_ZN7testing8internal35DefaultGlobalTestPartResultReporter20ReportTestPartResultERKNS_14TestPartResultE
FNDA:0,_ZN7testing8internal12UnitTestImpl23ListTestsMatchingFilterEv
FNDA:8,_ZN7testing8internal12UnitTestImplD0Ev
FNDA:0,_ZN7testing8internal25JsonUnitTestResultPrinter13OutputJsonKeyEPSoRKNSt7__cxx1112basic_stringIcSt11char_traitsIcESaIcEEESA_SA_SA_b
FNDA:16,_ZN7testing18TestEventListeners7ReleaseEPNS_17TestEventListenerE
FNDA:32,_ZN7testing8internal38HandleSehExceptionsInMethodIfSupportedINS_4TestEvEET0_PT_MS4_FS3_vEPKc
FNDA:0,_ZN7testing32ScopedFakeTestPartResultReporterD2Ev
FNDA:0,_ZN7testing8internal11CmpHelperGEEPKcS2_xx
FNDA:0,_ZN7testing8UnitTestD0Ev
FNDA:0,_ZN7testingL15TestPartSkippedERKNS_14TestPartResultE
FNDA:0,_ZN7testing12_GLOBAL__N_115IsSubstringImplIPKcEENS_15AssertionResultEbS3_S3_RKT_S7_
FNDA:8,_ZN7testing8internal27PrettyUnitTestResultPrinter25OnEnvironmentsTearDownEndERKNS_8UnitTestE
FNDA:0,_ZN7testing8internal6String17WideCStringEqualsEPKwS3_
FNDA:0,_ZN7testing8internal6String12FormatHexIntB5cxx11Ei
FNDA:8,_ZN7testing8internal17TestEventRepeater24OnEnvironmentsSetUpStartERKNS_8UnitTestE
FNDA:8,_ZN7testing8internal23ScopedPrematureExitFileD2Ev
FNDA:40,_ZNK7testing8TestCase17failed_test_countEv
FNDA:0,_ZN7testing7MessagelsEPw
FNDA:0,_ZN7testing8internal6String10FormatByteB5cxx11Eh
FNDA:0,_ZN7testingL24TestPartNonfatallyFailedERKNS_14TestPartResultE
FNDA:0,_ZN7testing8internal24XmlUnitTestResultPrinter21OutputXmlCDataSectionEPSoPKc
FNDA:8,_ZN7testing8internal17TestEventRepeater27OnEnvironmentsTearDownStartERKNS_8UnitTestE
FNDA:56,_ZN7testing8internal18OsStackTraceGetter16UponLeavingGTestEv
FNDA:0,_ZN7testing8internal20ShouldRunTestOnShardEiii
FNDA:8,_ZN7testing8internal15UnitTestOptions17FilterMatchesTestERKNSt7__cxx1112basic_stringIcSt11char_traitsIcESaIcEEES9_
FNDA:16,_ZNK7testing8UnitTest17failed_test_countEv
FNDA:16,_ZN7testing8internal13GetTestTypeIdEv
FNDA:16,_ZN7testing8internal17TestEventRepeater7ReleaseEPNS_17TestEventListenerE
FNDA:0,_ZNK7testing10TestResult15GetTestPropertyEi
FNDA:8,_ZN7testing8internal17TestEventRepeater13OnTestCaseEndERKNS_8TestCaseE
FNDA:0,_ZNK7testing8UnitTest22failed_test_case_countEv
FNDA:0,_ZN7testing12_GLOBAL__N_115IsSubstringImplINSt7__cxx1112basic_stringIcSt11char_traitsIcESaIcEEEEENS_15AssertionResultEbPKcSA_RKT_SD_
FNDA:0,_ZN7testing7FloatLEEPKcS1_ff
FNDA:8,_ZNK7testing8internal12UnitTestImpl18skipped_test_countEv
FNDA:16,_ZNK7testing8internal12UnitTestImpl17test_to_run_countEv
FNDA:0,_ZN7testing8internal20SingleFailureCheckerC2EPKNS_19TestPartResultArrayENS_14TestPartResult4TypeERKNSt7__cxx1112basic_stringIcSt11char_traitsIcESaIcEEE
FNDA:0,_ZN7testing8internal18OsStackTraceGetter17CurrentStackTraceB5cxx11Eii
FNDA:608,_ZN7testing8internal20StringStreamToStringEPNSt7__cxx1118basic_stringstreamIcSt11char_traitsIcESaIcEEE
FNDA:8,_ZN7testing8internal24ParseGoogleTestFlagsOnlyEPiPPc
FNDA:0,_ZN7testing14IsNotSubstringEPKcS1_PKwS3_
FNDA:16,_ZN7testing10TestResult5ClearEv
FNDA:8,_ZN7testing8internal14TestCaseNameIsC2ERKNSt7__cxx1112basic_stringIcSt11char_traitsIcESaIcEEE
FNDA:8,_ZN7testing8internal17TestEventRepeaterD0Ev
FNDA:0,_ZN7testing15AssertionResultC2ERKS0_
FNDA:8,_ZNK7testing8TestCase18skipped_test_countEv
FNDA:0,_ZN7testing8internal17StreamingListener12SocketWriter14MakeConnectionEv
FNDA:0,_ZN7testing8internal14CmpHelperSTRNEEPKcS2_PKwS4_
FNDA:8,_ZN7testing8TestCaseD2Ev
FNDA:0,_ZN7testing14IsNotSubstringEPKcS1_RKNSt7__cxx1112basic_stringIcSt11char_traitsIcESaIcEEES9_
FNDA:0,_ZN7testing11IsSubstringEPKcS1_RKNSt7__cxx1112basic_stringIcSt11char_traitsIcESaIcEEES9_
FNDA:136,_ZN7testing8internal24XmlUnitTestResultPrinter9EscapeXmlERKNSt7__cxx1112basic_stringIcSt11char_traitsIcESaIcEEEb
FNDA:8,_ZN7testing8internal12UnitTestImpl24ConfigureStreamingOutputEv
FNDA:0,_ZN7testing8UnitTest14PushGTestTraceERKNS_8internal9TraceInfoE
FNDA:0,_ZN7testing8internal25JsonUnitTestResultPrinter13OutputJsonKeyEPSoRKNSt7__cxx1112basic_stringIcSt11char_traitsIcESaIcEEESA_iSA_b
FNDA:0,_ZN7testing8internal25JsonUnitTestResultPrinter17PrintJsonTestCaseEPSoRKNS_8TestCaseE
FNDA:0,_ZN7testing8internal14CmpHelperSTRNEEPKcS2_S2_S2_
FNDA:8,_ZNK7testing8internal12UnitTestImpl21reportable_test_countEv
FNDA:8,_ZN7testing8internal12UnitTestImpl18ConfigureXmlOutputEv
FNDA:0,_ZN7testing8internal14ParseInt32FlagEPKcS2_Pi
FNDA:80,_ZN7testing8internalL14ParseFlagValueEPKcS2_b
FNDA:8,_ZN7testing8internal27PrettyUnitTestResultPrinter24OnEnvironmentsSetUpStartERKNS_8UnitTestE
FNDA:0,_ZN7testing8internal37CreateCodePointFromUtf16SurrogatePairEww
FNDA:0,_ZN7testing8internal11SplitStringERKNSt7__cxx1112basic_stringIcSt11char_traitsIcESaIcEEEcPSt6vectorIS6_SaIS6_EE
FNDA:8,_ZN7testing8internal38DefaultPerThreadTestPartResultReporterC2EPNS0_12UnitTestImplE
FNDA:0,_ZN7testing8internalL19PrintTestPartResultERKNS_14TestPartResultE
FNDA:0,_ZN7testing8internal10AlwaysTrueEv
FNDA:8,_ZN7testing8internal32FormatEpochTimeInMillisAsIso8601B5cxx11Ex
FNDA:0,_ZN7testing7MessagelsERKNSt7__cxx1112basic_stringIwSt11char_traitsIwESaIwEEE
FNDA:8,_ZN7testing8internal24XmlUnitTestResultPrinter17OutputXmlTestInfoEPSoPKcRKNS_8TestInfoE
FNDA:0,_ZN7testing8internal13edit_distance12_GLOBAL__N_115InternalStrings5GetIdERKNSt7__cxx1112basic_stringIcSt11char_traitsIcESaIcEEE
FNDA:8,_ZN7testing8internal17TestEventRepeater25OnEnvironmentsTearDownEndERKNS_8UnitTestE
FNDA:0,_ZN7testing8internal13edit_distance12_GLOBAL__N_14Hunk8PushLineEcPKc
FNDA:24,_ZNK7testing8TestCase21reportable_test_countEv
FNDA:8,_ZN7testing8internal12UnitTestImpl11GetTestCaseEPKcS3_PFvvES5_
FNDA:8,_ZNK7testing8UnitTest21successful_test_countEv
FNDA:0,_ZN7testing8internal12UnitTestImpl41GetTestPartResultReporterForCurrentThreadEv
FNDA:0,_ZN7testing4Test14RecordPropertyERKNSt7__cxx1112basic_stringIcSt11char_traitsIcESaIcEEEi
FNDA:0,_ZN7testing8internal27PrettyUnitTestResultPrinter16OnTestPartResultERKNS_14TestPartResultE
FNDA:0,_ZN7testing8internal12_GLOBAL__N_118SplitEscapedStringERKNSt7__cxx1112basic_stringIcSt11char_traitsIcESaIcEEE
FNDA:0,_ZN7testing8internal11CmpHelperLTEPKcS2_xx
FNDA:0,_ZNK7testing8UnitTest17current_test_infoEv
FNDA:8,_ZN7testing8internal30WriteToShardStatusFileIfNeededEv
FNDA:0,_ZN7testing8internal38DefaultPerThreadTestPartResultReporter20ReportTestPartResultERKNS_14TestPartResultE
FNDA:0,_ZNK7testing8UnitTest16total_test_countEv
FNDA:56,_ZN7testing8internal12UnitTestImpl21os_stack_trace_getterEv
FNDA:0,_ZN7testing8internal20SingleFailureCheckerD2Ev
FNDA:0,_ZN7testing8internal18CmpHelperSTRCASEEQEPKcS2_S2_S2_
FNDA:0,_ZN7testing8internal14CmpHelperSTREQEPKcS2_S2_S2_
FNDA:8,_ZN7testing18TestEventListenersC2Ev
FNDA:40,_ZN7testing8internal12UnitTestImpl19current_test_resultEv
FNDA:0,_ZN7testing4Test18HasNonfatalFailureEv
FNDA:600,_ZN7testing7MessageC2Ev
FNDA:8,_ZN7testing8internal17TestEventRepeaterD2Ev
FNDA:8,_ZN7testing8internal23MakeAndRegisterTestInfoEPKcS2_S2_S2_NS0_12CodeLocationEPKvPFvvES7_PNS0_15TestFactoryBaseE
FNDA:24,_ZN7testing18TestEventListeners8repeaterEv
FNDA:0,_ZN7testing8internal11ChopLowBitsEPji
FNDA:32,_ZNK7testing8internal12UnitTestImpl21total_test_case_countEv
FNDA:136,_ZN7testingL31GetReservedAttributesForElementERKNSt7__cxx1112basic_stringIcSt11char_traitsIcESaIcEEE
FNDA:8,_ZN7testing4Test5SetUpEv
FNDA:16,_ZN7testing8internal38HandleSehExceptionsInMethodIfSupportedINS_8TestCaseEvEET0_PT_MS4_FS3_vEPKc
FNDA:8,_ZN7testing8internal17TestEventRepeater18OnTestProgramStartERKNS_8UnitTestE
FNDA:0,_ZNK7testing8internal14TestCaseNameIsclEPKNS_8TestCaseE
FNDA:8,_ZN7testing8internalL18OpenFileForWritingERKNSt7__cxx1112basic_stringIcSt11char_traitsIcESaIcEEE
FNDA:0,_ZN7testing32ScopedFakeTestPartResultReporterD0Ev
FNDA:0,_ZN7testing18TestEventListeners23SuppressEventForwardingEv
FNDA:0,_ZN7testing8UnitTest14AddEnvironmentEPNS_11EnvironmentE
FNDA:16,_ZN7testing8internalL17ShouldRunTestCaseEPKNS_8TestCaseE
FNDA:0,_ZN7testing8internalL16GetAnsiColorCodeENS0_10GTestColorE
FNDA:8,_ZN7testing8internal17TestEventRepeater22OnEnvironmentsSetUpEndERKNS_8UnitTestE
FNDA:0,_ZN7testing8UnitTest27parameterized_test_registryEv
FNDA:0,_ZN7testing8internal10SkipPrefixEPKcPS2_
FNDA:16,_ZNK7testing8UnitTest30reportable_disabled_test_countEv
FNDA:8,_ZNK7testing8UnitTest21reportable_test_countEv
FNDA:0,_ZN7testing16AssertionFailureEv
FNDA:8,_ZN7testing8internal6String28CaseInsensitiveCStringEqualsEPKcS3_
FNDA:0,_ZN7testing8internal25JsonUnitTestResultPrinter18OnTestIterationEndERKNS_8UnitTestEi
FNDA:1064,_ZN7testing8internal15UnitTestOptions20PatternMatchesStringEPKcS3_
FNDA:0,_ZNK7testing8UnitTest17current_test_caseEv
FNDA:0,_ZN7testing8internal13edit_distance12_GLOBAL__N_14Hunk7PrintToEPSo
FNDA:16,_ZNK7testing8UnitTest17test_to_run_countEv
FNDA:0,_ZN7testing8internal11CmpHelperEQEPKcS2_xx
FNDA:0,_ZN7testing10TestResult14RecordPropertyERKNSt7__cxx1112basic_stringIcSt11char_traitsIcESaIcEEERKNS_12TestPropertyE
FNDA:0,_ZN7testing10TestResult20ClearTestPartResultsEv
FNDA:0,_ZN7testing8UnitTest14RecordPropertyERKNSt7__cxx1112basic_stringIcSt11char_traitsIcESaIcEEES8_
FNDA:0,_ZN7testing8internal12UnitTestImpl25set_os_stack_trace_getterEPNS0_27OsStackTraceGetterInterfaceE
FNDA:8,_ZN7testing8internal35HandleExceptionsInMethodIfSupportedINS0_15TestFactoryBaseEPNS_4TestEEET0_PT_MS6_FS5_vEPKc
FNDA:8,_ZN7testing8UnitTestC2Ev
FNDA:0,_ZN7testing8internal6String23EndsWithCaseInsensitiveERKNSt7__cxx1112basic_stringIcSt11char_traitsIcESaIcEEES9_
FNDA:32,_ZN7testing8internal35HandleExceptionsInMethodIfSupportedINS_4TestEvEET0_PT_MS4_FS3_vEPKc
FNDA:0,_ZN7testing12_GLOBAL__N_115IsSubstringImplINSt7__cxx1112basic_stringIwSt11char_traitsIwESaIwEEEEENS_15AssertionResultEbPKcSA_RKT_SD_
FNDA:0,_ZNK7testing10TestResult18HasNonfatalFailureEv
FNDA:8,_ZN7testing8TestInfoC2ERKNSt7__cxx1112basic_stringIcSt11char_traitsIcESaIcEEES8_PKcSA_NS_8internal12CodeLocationEPKvPNSB_15TestFactoryBaseE
FNDA:0,_ZN7testing8internal13edit_distance17CreateUnifiedDiffERKSt6vectorINSt7__cxx1112basic_stringIcSt11char_traitsIcESaIcEEESaIS8_EESC_m
FNDA:16,_ZNK7testing8TestCase11GetTestInfoEi
FNDA:8,_ZNK7testing8TestCase21successful_test_countEv
FNDA:0,_ZN7testing8internal13edit_distance12_GLOBAL__N_14Hunk10FlushEditsEv
FNDA:0,_ZN7testing8internal14CmpHelperSTREQEPKcS2_PKwS4_
FNDA:0,_ZN7testing8internal25JsonUnitTestResultPrinter17PrintJsonTestListEPSoRKSt6vectorIPNS_8TestCaseESaIS5_EE
FNDA:8,_ZN7testing8internal12UnitTestImplC2EPNS_8UnitTestE
FNDA:24,_ZN7testing8internal27FormatTimeInMillisAsSecondsB5cxx11Ex
FNDA:48,_ZNK7testing10TestResult7SkippedEv
FNDA:16,_ZN7testing8internalL18GTestIsInitializedEv
FNDA:72,_ZN7testing8internal13ColoredPrintfENS0_10GTestColorEPKcz
FNDA:0,_ZN7testing8internal15CodePointToUtf8B5cxx11Ej
FNDA:0,_ZN7testing12_GLOBAL__N_115IsSubstringPredINSt7__cxx1112basic_stringIwSt11char_traitsIwESaIwEEEEEbRKT_SA_
FNDA:0,_ZN7testing8internal25JsonUnitTestResultPrinterC2EPKc
FNDA:8,_ZN7testing4Test8TearDownEv
FNDA:8,_ZN7testing8internal23ScopedPrematureExitFileC2EPKc
FNDA:0,_ZN7testing8TestCase12ShuffleTestsEPNS_8internal6RandomE
FNDA:0,_ZN7testingL14FormatWordListERKSt6vectorINSt7__cxx1112basic_stringIcSt11char_traitsIcESaIcEEESaIS6_EE
FNDA:88,_ZN7testing13ArrayAsVectorILi8EEESt6vectorINSt7__cxx1112basic_stringIcSt11char_traitsIcESaIcEEESaIS7_EERAT__KPKc
FNDA:0,_ZN7testing8internal30GetBoolAssertionFailureMessageB5cxx11ERKNS_15AssertionResultEPKcS5_S5_
FNDA:0,_ZN7testing8internalL24StreamWideCharsToMessageEPKwmPNS_7MessageE
FNDA:0,_ZN7testing32ScopedFakeTestPartResultReporterC2ENS0_13InterceptModeEPNS_19TestPartResultArrayE
FNDA:0,_ZN7testing16AssertionFailureERKNS_7MessageE
FNDA:8,_ZN7testing8internal12UnitTestImplD2Ev
FNDA:0,_ZN7testing8internal17TestEventRepeater22set_forwarding_enabledEb
FNDA:8,_ZN7testing8TestCase11ClearResultEv
FNDA:0,_ZN7testing8internal18InitGoogleTestImplIwEEvPiPPT_
FNDA:0,_ZN7testing8internal12UnitTestImpl41SetTestPartResultReporterForCurrentThreadEPNS_31TestPartResultReporterInterfaceE
FNDA:0,_ZNK7testing8internal13edit_distance12_GLOBAL__N_14Hunk11PrintHeaderEPSo
FNDA:0,_ZN7testing8internal16WideStringToUtf8B5cxx11EPKwi
FNDA:24,_ZN7testingL15FormatTestCountEi
FNDA:8,_ZN7testing8internal12UnitTestImpl14UnshuffleTestsEv
FNDA:8,_ZN7testing8internal12UnitTestImpl11FilterTestsENS1_18ReactionToShardingE
FNDA:16,_ZN7testing8internalL14TestCaseFailedEPKNS_8TestCaseE
FNDA:0,_ZN7testing8internal31GetCurrentOsStackTraceExceptTopB5cxx11EPNS_8UnitTestEi
FNDA:0,_ZN7testing11ScopedTrace9PushTraceEPKciNSt7__cxx1112basic_stringIcSt11char_traitsIcESaIcEEE
FNDA:0,_ZN7testing8internal13edit_distance21CalculateOptimalEditsERKSt6vectorImSaImEES6_
FNDA:0,_ZN7testing8internal27PrettyUnitTestResultPrinter17PrintSkippedTestsERKNS_8UnitTestE
FNDA:0,_ZNK7testing8internal12UnitTestImpl26successful_test_case_countEv
FNDA:0,_ZN7testing8internalL16SetUpEnvironmentEPNS_11EnvironmentE
FNDA:8,_ZN7testing8UnitTest3RunEv
FNDA:24,_ZN7testing4Test15HasFatalFailureEv
FNDA:0,_ZN7testing11IsSubstringEPKcS1_S1_S1_
FNDA:8,_ZN7testing8internal17TestEventRepeater15OnTestCaseStartERKNS_8TestCaseE
FNDA:40,_ZN7testing8internalL13ParseBoolFlagEPKcS2_Pb
FNDA:16,_ZN7testing18TestEventListeners6AppendEPNS_17TestEventListenerE
FNDA:0,_ZN7testing8internal15FloatingPointLEIdEENS_15AssertionResultEPKcS4_T_S5_
FNDA:8,_ZN7testing8TestCase3RunEv
FNDA:16,_ZN7testing8internal11ShouldShardEPKcS2_b
FNDA:8,_ZN7testing8internal12UnitTestImpl26RegisterParameterizedTestsEv
FNDA:8,_ZN7testing8internal17TestEventRepeater20OnTestIterationStartERKNS_8UnitTestEi
FNDA:616,_ZN7testing8internal24XmlUnitTestResultPrinter19IsValidXmlCharacterEc
FNDA:0,_ZNK7testing10TestResult17GetTestPartResultEi
FNDA:0,_ZN7testing8internal12UnitTestImpl28CurrentOsStackTraceExceptTopB5cxx11Ei
FNDA:0,_ZN7testing8internal24XmlUnitTestResultPrinter26RemoveInvalidXmlCharactersERKNSt7__cxx1112basic_stringIcSt11char_traitsIcESaIcEEE
FNDA:16,_ZNK7testing8UnitTest22test_case_to_run_countEv
FNDA:8,_ZN7testing4Test19HasSameFixtureClassEv
FNDA:8,_ZN7testing4Test3RunEv
FNDA:8,_ZN7testing8internal24XmlUnitTestResultPrinter16PrintXmlUnitTestEPSoRKNS_8UnitTestE
FNDA:0,_ZN7testing8internalL14TestCasePassedEPKNS_8TestCaseE
FNDA:0,_ZN7testing8internalL19TearDownEnvironmentEPNS_11EnvironmentE
FNDA:0,_ZN7testing8internal30ReportFailureInUnknownLocationENS_14TestPartResult4TypeERKNSt7__cxx1112basic_stringIcSt11char_traitsIcESaIcEEE
FNDA:0,_ZN7testing10TestResult20ValidateTestPropertyERKNSt7__cxx1112basic_stringIcSt11char_traitsIcESaIcEEERKNS_12TestPropertyE
FNDA:56,_ZN7testingL19FormatCountableNounEiPKcS1_
FNF:373
FNH:183
DA:198,8
DA:199,8
DA:200,16
DA:201,8
DA:203,8
DA:204,8
DA:206,8
DA:207,0
DA:209,16
DA:216,8
DA:218,8
DA:219,8
DA:220,0
DA:222,8
DA:353,0
DA:356,0
DA:358,0
DA:359,0
DA:360,0
DA:361,0
DA:362,0
DA:367,0
DA:373,16
DA:378,72
DA:380,72
DA:381,144
DA:382,72
DA:384,72
DA:388,0
DA:389,0
DA:393,16
DA:394,16
DA:399,16
DA:400,16
DA:404,0
DA:407,0
DA:408,0
DA:409,0
DA:411,0
DA:412,0
DA:413,0
DA:416,0
DA:418,0
DA:419,0
DA:421,0
DA:424,0
DA:429,16
DA:436,16
DA:442,0
DA:443,0
DA:448,0
DA:451,0
DA:457,16
DA:458,16
DA:459,16
DA:462,16
DA:467,8
DA:468,8
DA:470,16
DA:471,8
DA:472,0
DA:474,8
DA:475,8
DA:476,0
DA:477,0
DA:479,0
DA:480,0
DA:482,24
DA:483,8
DA:488,0
DA:489,0
DA:490,0
DA:492,8
DA:493,8
DA:496,0
DA:497,0
DA:498,0
DA:506,1064
DA:508,1064
DA:509,16
DA:511,16
DA:512,0
DA:513,0
DA:514,624
DA:515,1040
DA:516,1040
DA:517,424
DA:518,424
DA:519,424
DA:523,40
DA:525,40
DA:527,64
DA:528,8
DA:532,56
DA:535,56
DA:536,32
DA:540,24
DA:546,8
DA:548,16
DA:552,8
DA:553,8
DA:554,16
DA:555,8
DA:556,8
DA:557,8
DA:558,8
DA:560,0
DA:561,0
DA:562,0
DA:564,0
DA:570,16
DA:571,24
DA:607,0
DA:608,0
DA:610,0
DA:611,0
DA:612,0
DA:617,0
DA:618,0
DA:620,0
DA:621,0
DA:622,0
DA:624,0
DA:625,0
DA:626,0
DA:627,0
DA:628,0
DA:630,0
DA:631,0
DA:633,0
DA:637,0
DA:638,0
DA:639,0
DA:640,0
DA:642,0
DA:644,0
DA:648,0
DA:650,0
DA:651,0
DA:664,16
DA:665,16
DA:675,0
DA:683,0
DA:684,0
DA:685,0
DA:686,0
DA:687,0
DA:688,0
DA:689,0
DA:691,0
DA:694,0
DA:695,0
DA:696,0
DA:697,0
DA:698,0
DA:701,0
DA:702,0
DA:703,0
DA:704,0
DA:705,0
DA:708,0
DA:714,0
DA:716,0
DA:717,0
DA:723,0
DA:724,0
DA:725,0
DA:727,8
DA:728,8
DA:730,0
DA:732,0
DA:733,0
DA:734,0
DA:736,8
DA:737,8
DA:739,0
DA:741,0
DA:742,0
DA:746,0
DA:747,0
DA:748,0
DA:752,0
DA:754,0
DA:755,0
DA:756,0
DA:760,0
DA:761,0
DA:765,0
DA:767,0
DA:768,0
DA:771,0
DA:772,0
DA:776,16
DA:777,16
DA:781,32
DA:782,32
DA:787,16
DA:788,16
DA:792,8
DA:793,8
DA:797,8
DA:798,8
DA:802,16
DA:803,16
DA:807,16
DA:808,16
DA:809,16
DA:813,0
DA:814,0
DA:818,8
DA:819,8
DA:823,0
DA:824,0
DA:828,16
DA:829,16
DA:842,0
DA:843,0
DA:848,0
DA:852,56
DA:888,56
DA:889,56
DA:938,32
DA:939,32
DA:941,32
DA:943,32
DA:950,0
DA:952,0
DA:953,0
DA:954,0
DA:955,0
DA:956,0
DA:958,0
DA:959,0
DA:962,0
DA:966,0
DA:968,0
DA:969,0
DA:970,0
DA:971,0
DA:972,0
DA:973,0
DA:974,0
DA:976,0
DA:977,0
DA:980,0
DA:981,0
DA:990,600
DA:993,600
DA:994,600
DA:998,0
DA:999,0
DA:1001,0
DA:1002,0
DA:1008,0
DA:1009,0
DA:1010,0
DA:1025,600
DA:1026,600
DA:1031,0
DA:1032,0
DA:1033,0
DA:1034,0
DA:1035,0
DA:1038,0
DA:1040,0
DA:1041,0
DA:1042,0
DA:1045,0
DA:1046,0
DA:1047,0
DA:1048,0
DA:1052,0
DA:1053,0
DA:1057,0
DA:1058,0
DA:1063,0
DA:1064,0
DA:1070,0
DA:1073,0
DA:1075,0
DA:1078,0
DA:1079,0
DA:1080,0
DA:1083,0
DA:1084,0
DA:1085,0
DA:1088,0
DA:1089,0
DA:1090,0
DA:1092,0
DA:1093,0
DA:1094,0
DA:1097,0
DA:1098,0
DA:1099,0
DA:1100,0
DA:1101,0
DA:1102,0
DA:1103,0
DA:1104,0
DA:1105,0
DA:1109,0
DA:1110,0
DA:1116,0
DA:1117,0
DA:1118,0
DA:1119,0
DA:1120,0
DA:1121,0
DA:1123,0
DA:1124,0
DA:1132,0
DA:1133,0
DA:1134,0
DA:1135,0
DA:1136,0
DA:1146,0
DA:1149,0
DA:1151,0
DA:1152,0
DA:1153,0
DA:1155,0
DA:1156,0
DA:1159,0
DA:1170,0
DA:1171,0
DA:1175,0
DA:1177,0
DA:1178,0
DA:1179,0
DA:1180,0
DA:1181,0
DA:1182,0
DA:1183,0
DA:1184,0
DA:1185,0
DA:1186,0
DA:1187,0
DA:1188,0
DA:1189,0
DA:1190,0
DA:1191,0
DA:1193,0
DA:1195,0
DA:1196,0
DA:1197,0
DA:1198,0
DA:1199,0
DA:1200,0
DA:1201,0
DA:1203,0
DA:1205,0
DA:1208,0
DA:1209,0
DA:1210,0
DA:1211,0
DA:1217,0
DA:1218,0
DA:1219,0
DA:1220,0
DA:1222,0
DA:1223,0
DA:1225,0
DA:1226,0
DA:1228,0
DA:1229,0
DA:1245,0
DA:1248,0
DA:1250,0
DA:1251,0
DA:1252,0
DA:1254,0
DA:1255,0
DA:1256,0
DA:1257,0
DA:1261,0
DA:1262,0
DA:1263,0
DA:1264,0
DA:1269,0
DA:1270,0
DA:1271,0
DA:1273,0
DA:1274,0
DA:1275,0
DA:1277,0
DA:1281,0
DA:1283,0
DA:1285,0
DA:1286,0
DA:1288,0
DA:1289,0
DA:1293,0
DA:1294,0
DA:1297,0
DA:1299,0
DA:1302,0
DA:1304,0
DA:1314,0
DA:1315,0
DA:1316,0
DA:1317,0
DA:1318,0
DA:1319,0
DA:1321,0
DA:1322,0
DA:1323,0
DA:1324,0
DA:1325,0
DA:1326,0
DA:1327,0
DA:1330,0
DA:1333,0
DA:1334,0
DA:1354,0
DA:1359,0
DA:1360,0
DA:1361,0
DA:1362,0
DA:1363,0
DA:1365,0
DA:1366,0
DA:1367,0
DA:1370,0
DA:1371,0
DA:1374,0
DA:1376,0
DA:1378,0
DA:1379,0
DA:1380,0
DA:1381,0
DA:1385,0
DA:1389,0
DA:1394,0
DA:1395,0
DA:1396,0
DA:1397,0
DA:1398,0
DA:1399,0
DA:1400,0
DA:1401,0
DA:1405,0
DA:1411,0
DA:1412,0
DA:1416,0
DA:1417,0
DA:1418,0
DA:1419,0
DA:1420,0
DA:1421,0
DA:1427,0
DA:1432,0
DA:1433,0
DA:1437,0
DA:1438,0
DA:1439,0
DA:1446,0
DA:1447,0
DA:1448,0
DA:1450,0
DA:1451,0
DA:1452,0
DA:1455,0
DA:1456,0
DA:1457,0
DA:1464,0
DA:1466,0
DA:1471,0
DA:1473,0
DA:1480,0
DA:1484,0
DA:1485,0
DA:1490,0
DA:1491,0
DA:1492,0
DA:1513,0
DA:1516,0
DA:1519,0
DA:1522,0
DA:1525,0
DA:1530,0
DA:1534,0
DA:1535,0
DA:1540,0
DA:1541,0
DA:1542,0
DA:1546,0
DA:1550,0
DA:1551,0
DA:1556,0
DA:1557,0
DA:1558,0
DA:1562,0
DA:1566,0
DA:1567,0
DA:1569,0
DA:1570,0
DA:1571,0
DA:1576,0
DA:1580,0
DA:1581,0
DA:1583,0
DA:1584,0
DA:1585,0
DA:1586,0
DA:1600,0
DA:1601,0
DA:1603,0
DA:1606,0
DA:1607,0
DA:1609,0
DA:1614,0
DA:1616,0
DA:1624,0
DA:1628,0
DA:1629,0
DA:1631,0
DA:1632,0
DA:1634,0
DA:1635,0
DA:1636,0
DA:1637,0
DA:1638,0
DA:1647,0
DA:1650,0
DA:1653,0
DA:1656,0
DA:1659,0
DA:1662,0
DA:1665,0
DA:1668,0
DA:1671,0
DA:1674,0
DA:1677,0
DA:1680,0
DA:1684,0
DA:1687,0
DA:1690,0
DA:1693,0
DA:1788,0
DA:1789,0
DA:1790,0
DA:1791,0
DA:1800,0
DA:1801,0
DA:1802,0
DA:1806,0
DA:1807,0
DA:1808,0
DA:1809,0
DA:1810,0
DA:1811,0
DA:1812,0
DA:1813,0
DA:1814,0
DA:1815,0
DA:1816,0
DA:1817,0
DA:1819,0
DA:1820,0
DA:1821,0
DA:1822,0
DA:1823,0
DA:1825,0
DA:1835,0
DA:1837,0
DA:1841,0
DA:1843,0
DA:1848,0
DA:1864,0
DA:1865,0
DA:1866,0
DA:1868,0
DA:1869,0
DA:1872,0
DA:1873,0
DA:1874,0
DA:1875,0
DA:1876,0
DA:1877,0
DA:1879,0
DA:1882,0
DA:1884,0
DA:1889,0
DA:1890,0
DA:1892,0
DA:1901,0
DA:1902,0
DA:1904,0
DA:1906,0
DA:1910,0
DA:1914,0
DA:1915,0
DA:1920,0
DA:1921,0
DA:1922,0
DA:1926,0
DA:1930,0
DA:1931,0
DA:1934,0
DA:1935,0
DA:1936,0
DA:1937,0
DA:1946,8
DA:1947,8
DA:1948,8
DA:1949,8
DA:1964,0
DA:1966,0
DA:1968,0
DA:1973,0
DA:1988,0
DA:1990,0
DA:1991,0
DA:1992,0
DA:1993,0
DA:1994,0
DA:1998,40
DA:1999,80
DA:2000,40
DA:2001,80
DA:2005,0
DA:2006,0
DA:2007,0
DA:2008,0
DA:2012,0
DA:2013,0
DA:2014,0
DA:2015,0
DA:2016,0
DA:2021,608
DA:2022,1216
DA:2023,608
DA:2024,608
DA:2026,608
DA:2027,608
DA:2028,11912
DA:2029,11304
DA:2030,0
DA:2032,11304
DA:2036,1216
DA:2040,0
DA:2043,0
DA:2044,0
DA:2045,0
DA:2048,0
DA:2056,24
DA:2058,24
DA:2059,24
DA:2062,24
DA:2063,24
DA:2068,0
DA:2069,0
DA:2070,0
DA:2071,0
DA:2077,0
DA:2078,0
DA:2079,0
DA:2080,0
DA:2084,0
DA:2085,0
DA:2086,0
DA:2089,0
DA:2090,0
DA:2091,0
DA:2096,0
DA:2098,0
DA:2099,0
DA:2101,0
DA:2104,0
DA:2105,0
DA:2106,0
DA:2107,0
DA:2109,0
DA:2142,136
DA:2143,136
DA:2146,136
DA:2148,136
DA:2149,56
DA:2150,80
DA:2151,48
DA:2152,32
DA:2153,32
DA:2155,0
DA:2158,0
DA:2161,0
DA:2162,0
DA:2163,0
DA:2164,0
DA:2165,0
DA:2167,0
DA:2168,0
DA:2170,0
DA:2172,0
DA:2175,0
DA:2178,0
DA:2179,0
DA:2180,0
DA:2181,0
DA:2182,0
DA:2183,0
DA:2185,0
DA:2190,0
DA:2192,0
DA:2193,0
DA:2197,16
DA:2198,16
DA:2199,16
DA:2200,16
DA:2201,16
DA:2202,16
DA:2205,0
DA:2206,0
DA:2210,48
DA:2211,48
DA:2215,128
DA:2216,128
DA:2217,0
DA:2218,0
DA:2220,128
DA:2224,0
DA:2225,0
DA:2229,24
DA:2230,24
DA:2234,0
DA:2235,0
DA:2239,0
DA:2240,0
DA:2245,136
DA:2246,136
DA:2250,24
DA:2251,24
DA:2259,8
DA:2260,8
DA:2261,8
DA:2266,8
DA:2267,8
DA:2272,8
DA:2273,8
DA:2278,8
DA:2279,8
DA:2282,0
DA:2283,0
DA:2284,0
DA:2287,0
DA:2288,0
DA:2289,0
DA:2290,0
DA:2291,0
DA:2295,0
DA:2299,0
DA:2305,0
DA:2314,8
DA:2315,8
DA:2316,8
DA:2319,8
DA:2320,8
DA:2321,8
DA:2324,8
DA:2325,8
DA:2326,8
DA:2328,8
DA:2330,0
DA:2332,0
DA:2334,0
DA:2341,0
DA:2343,0
DA:2346,0
DA:2347,0
DA:2348,0
DA:2349,0
DA:2350,0
DA:2351,0
DA:2352,0
DA:2353,0
DA:2354,0
DA:2358,0
DA:2359,0
DA:2360,0
DA:2361,0
DA:2362,0
DA:2363,0
DA:2364,0
DA:2365,0
DA:2366,0
DA:2367,0
DA:2369,0
DA:2372,8
DA:2397,0
DA:2399,0
DA:2400,0
DA:2401,0
DA:2403,0
DA:2405,0
DA:2407,0
DA:2413,0
DA:2414,0
DA:2415,0
DA:2428,64
DA:2447,64
DA:2455,64
DA:2480,64
DA:2483,64
DA:2484,0
DA:2486,0
DA:2490,0
DA:2491,0
DA:2492,0
DA:2494,0
DA:2495,0
DA:2496,0
DA:2500,0
DA:2505,0
DA:2512,8
DA:2513,8
DA:2515,8
DA:2516,8
DA:2517,8
DA:2520,8
DA:2521,8
DA:2522,8
DA:2529,8
DA:2530,8
DA:2535,24
DA:2536,24
DA:2540,0
DA:2542,0
DA:2546,16
DA:2547,16
DA:2554,8
DA:2559,8
DA:2562,0
DA:2563,0
DA:2570,8
DA:2573,8
DA:2595,8
DA:2607,8
DA:2608,8
DA:2609,8
DA:2612,0
DA:2614,0
DA:2616,0
DA:2617,0
DA:2618,0
DA:2619,0
DA:2620,0
DA:2621,0
DA:2622,0
DA:2623,0
DA:2625,0
DA:2627,0
DA:2628,0
DA:2665,8
DA:2666,8
DA:2667,8
DA:2668,8
DA:2670,8
DA:2676,8
DA:2677,8
DA:2680,8
DA:2681,8
DA:2683,8
DA:2686,8
DA:2688,8
DA:2690,8
DA:2693,16
DA:2694,8
DA:2700,8
DA:2703,8
DA:2707,8
DA:2708,8
DA:2711,8
DA:2714,8
DA:2718,8
DA:2724,8
DA:2725,8
DA:2729,8
DA:2730,8
DA:2734,40
DA:2735,40
DA:2739,24
DA:2740,24
DA:2744,0
DA:2745,0
DA:2749,24
DA:2750,24
DA:2754,32
DA:2755,32
DA:2759,32
DA:2760,32
DA:2772,8
DA:2774,8
DA:2776,0
DA:2780,8
DA:2783,16
DA:2785,8
DA:2786,16
DA:2790,16
DA:2791,16
DA:2792,16
DA:2797,8
DA:2798,8
DA:2799,8
DA:2804,8
DA:2805,8
DA:2806,8
DA:2807,8
DA:2810,8
DA:2811,8
DA:2813,8
DA:2814,8
DA:2816,8
DA:2818,8
DA:2819,8
DA:2820,8
DA:2823,8
DA:2824,16
DA:2825,8
DA:2827,8
DA:2829,8
DA:2830,8
DA:2833,8
DA:2834,8
DA:2838,8
DA:2839,8
DA:2840,8
DA:2841,8
DA:2844,0
DA:2845,0
DA:2846,0
DA:2849,8
DA:2850,16
DA:2851,8
DA:2853,8
DA:2860,56
DA:2863,112
DA:2864,168
DA:2868,24
DA:2869,24
DA:2873,16
DA:2874,16
DA:2881,0
DA:2882,0
DA:2883,0
DA:2884,0
DA:2885,0
DA:2886,0
DA:2888,0
DA:2893,0
DA:2895,0
DA:2896,0
DA:2903,0
DA:2905,0
DA:2906,0
DA:2907,0
DA:2908,0
DA:2909,0
DA:2913,0
DA:2915,0
DA:2916,0
DA:2917,0
DA:2929,0
DA:2980,0
DA:2981,0
DA:2982,0
DA:2983,0
DA:2984,0
DA:2985,0
DA:2986,0
DA:2993,8
DA:2994,8
DA:2996,8
DA:3003,8
DA:3005,16
DA:3006,16
DA:3007,8
DA:3008,0
DA:3009,0
DA:3010,0
DA:3011,0
DA:3012,0
DA:3013,0
DA:3014,16
DA:3015,0
DA:3016,8
DA:3020,0
DA:3021,0
DA:3022,0
DA:3023,0
DA:3033,72
DA:3035,72
DA:3042,72
DA:3043,72
DA:3047,72
DA:3048,72
DA:3049,72
DA:3050,72
DA:3075,0
DA:3076,0
DA:3077,0
DA:3079,0
DA:3087,0
DA:3088,0
DA:3089,0
DA:3091,0
DA:3092,0
DA:3093,0
DA:3094,0
DA:3095,0
DA:3097,0
DA:3098,0
DA:3101,0
DA:3108,8
DA:3109,16
DA:3110,16
DA:3111,16
DA:3114,8
DA:3117,8
DA:3124,8
DA:3126,8
DA:3134,8
DA:3136,8
DA:3137,0
DA:3139,8
DA:3143,8
DA:3144,0
DA:3148,8
DA:3149,0
DA:3150,0
DA:3156,8
DA:3157,0
DA:3162,8
DA:3163,16
DA:3164,16
DA:3165,16
DA:3166,8
DA:3167,8
DA:3169,8
DA:3171,8
DA:3172,8
DA:3173,8
DA:3174,8
DA:3176,8
DA:3178,16
DA:3179,8
DA:3180,8
DA:3181,8
DA:3182,8
DA:3184,0
DA:3186,8
DA:3187,8
DA:3189,8
DA:3190,8
DA:3191,8
DA:3192,8
DA:3193,8
DA:3194,8
DA:3197,0
DA:3199,0
DA:3202,0
DA:3204,0
DA:3205,0
DA:3208,0
DA:3209,0
DA:3213,8
DA:3214,8
DA:3215,8
DA:3216,0
DA:3217,0
DA:3219,0
DA:3221,8
DA:3222,8
DA:3223,0
DA:3225,8
DA:3226,8
DA:3227,16
DA:3229,0
DA:3231,8
DA:3232,8
DA:3234,8
DA:3235,8
DA:3238,16
DA:3239,8
DA:3240,8
DA:3242,16
DA:3243,8
DA:3246,8
DA:3248,8
DA:3249,8
DA:3250,8
DA:3251,8
DA:3254,0
DA:3255,0
DA:3256,0
DA:3257,0
DA:3260,0
DA:3261,0
DA:3262,0
DA:3263,0
DA:3265,0
DA:3266,0
DA:3267,0
DA:3268,0
DA:3270,0
DA:3271,0
DA:3272,0
DA:3273,0
DA:3279,0
DA:3280,0
DA:3281,0
DA:3282,0
DA:3285,0
DA:3286,0
DA:3287,0
DA:3288,0
DA:3290,0
DA:3291,0
DA:3292,0
DA:3293,0
DA:3295,0
DA:3296,0
DA:3297,0
DA:3302,8
DA:3304,8
DA:3305,16
DA:3306,16
DA:3307,16
DA:3308,8
DA:3309,8
DA:3310,16
DA:3312,8
DA:3313,8
DA:3314,8
DA:3316,8
DA:3317,8
DA:3318,0
DA:3319,0
DA:3320,0
DA:3323,8
DA:3324,8
DA:3325,0
DA:3326,0
DA:3327,0
DA:3328,0
DA:3329,0
DA:3333,8
DA:3334,8
DA:3335,0
DA:3336,0
DA:3338,0
DA:3344,8
DA:3345,8
DA:3354,8
DA:3361,0
DA:3362,0
DA:3388,16
DA:3389,8
DA:3390,16
DA:3392,16
DA:3393,16
DA:3394,16
DA:3397,16
DA:3398,24
DA:3399,8
DA:3400,0
DA:3401,0
DA:3405,16
DA:3429,24
DA:3430,24
DA:3431,24
DA:3432,24
DA:3433,0
DA:3434,24
DA:3435,24
DA:3436,24
DA:3437,24
DA:3438,24
DA:3439,24
DA:3444,8
DA:3446,8
DA:3447,24
DA:3448,16
DA:3451,8
DA:3453,8
DA:3455,8
DA:3456,24
DA:3457,16
DA:3460,8
DA:3479,1232
DA:3480,1232
DA:3484,616
DA:3485,616
DA:3498,136
DA:3499,136
DA:3548,8
DA:3549,8
DA:3550,8
DA:3551,0
DA:3553,8
DA:3556,8
DA:3558,8
DA:3559,16
DA:3560,8
DA:3561,8
DA:3562,8
DA:3563,8
DA:3565,0
DA:3567,0
DA:3568,0
DA:3569,0
DA:3570,0
DA:3571,0
DA:3572,0
DA:3586,136
DA:3588,272
DA:3590,752
DA:3591,616
DA:3592,616
DA:3593,0
DA:3594,0
DA:3595,0
DA:3596,0
DA:3597,0
DA:3598,0
DA:3599,0
DA:3600,0
DA:3601,0
DA:3602,0
DA:3603,0
DA:3604,0
DA:3606,0
DA:3607,0
DA:3608,0
DA:3609,0
DA:3610,0
DA:3612,0
DA:3613,0
DA:3614,616
DA:3615,616
DA:3616,616
DA:3617,0
DA:3618,0
DA:3620,616
DA:3622,616
DA:3626,272
DA:3632,0
DA:3634,0
DA:3635,0
DA:3636,0
DA:3637,0
DA:3638,0
DA:3640,0
DA:3661,24
DA:3662,48
DA:3663,24
DA:3664,48
DA:3667,8
DA:3678,8
DA:3684,8
DA:3686,8
DA:3687,0
DA:3689,16
DA:3690,32
DA:3691,32
DA:3692,32
DA:3693,32
DA:3694,24
DA:3698,0
DA:3700,0
DA:3701,0
DA:3703,0
DA:3704,0
DA:3706,0
DA:3707,0
DA:3708,0
DA:3710,0
DA:3711,0
DA:3713,0
DA:3714,0
DA:3715,0
DA:3717,136
DA:3723,136
DA:3725,136
DA:3728,0
DA:3730,136
DA:3731,136
DA:3735,8
DA:3738,8
DA:3739,8
DA:3741,8
DA:3742,0
DA:3745,8
DA:3746,8
DA:3748,8
DA:3749,0
DA:3752,8
DA:3753,0
DA:3755,8
DA:3756,0
DA:3757,0
DA:3758,0
DA:3759,0
DA:3760,0
DA:3763,16
DA:3764,8
DA:3765,8
DA:3766,8
DA:3767,16
DA:3768,8
DA:3770,8
DA:3771,8
DA:3772,0
DA:3773,0
DA:3774,0
DA:3775,0
DA:3779,0
DA:3780,0
DA:3782,0
DA:3783,0
DA:3784,0
DA:3785,0
DA:3786,0
DA:3790,8
DA:3791,8
DA:3793,0
DA:3794,0
DA:3796,0
DA:3797,0
DA:3802,8
DA:3804,16
DA:3805,8
DA:3806,8
DA:3807,8
DA:3808,16
DA:3809,8
DA:3810,8
DA:3811,16
DA:3812,8
DA:3814,16
DA:3815,8
DA:3816,8
DA:3817,16
DA:3818,8
DA:3820,8
DA:3821,16
DA:3822,8
DA:3823,8
DA:3825,8
DA:3826,8
DA:3829,8
DA:3831,16
DA:3833,8
DA:3834,8
DA:3836,8
DA:3837,16
DA:3838,8
DA:3839,16
DA:3840,8
DA:3842,16
DA:3843,8
DA:3844,8
DA:3846,16
DA:3847,8
DA:3848,16
DA:3850,8
DA:3851,0
DA:3852,0
DA:3854,8
DA:3856,8
DA:3857,8
DA:3859,16
DA:3860,8
DA:3861,8
DA:3863,8
DA:3864,8
DA:3866,0
DA:3868,0
DA:3870,0
DA:3871,0
DA:3873,0
DA:3874,0
DA:3875,0
DA:3877,0
DA:3878,0
DA:3879,0
DA:3880,0
DA:3882,0
DA:3883,0
DA:3885,0
DA:3886,0
DA:3890,16
DA:3892,32
DA:3893,16
DA:3894,0
DA:3895,0
DA:3896,0
DA:3898,32
DA:3901,0
DA:3903,0
DA:3904,0
DA:3906,0
DA:3907,0
DA:3910,0
DA:3911,0
DA:3912,0
DA:3913,0
DA:3914,0
DA:3915,0
DA:3916,0
DA:3918,0
DA:3978,0
DA:3979,0
DA:3980,0
DA:3981,0
DA:3983,0
DA:3985,0
DA:3987,0
DA:3988,0
DA:3989,0
DA:3990,0
DA:3991,0
DA:3992,0
DA:3995,0
DA:3996,0
DA:3998,0
DA:3999,0
DA:4000,0
DA:4001,0
DA:4004,0
DA:4005,0
DA:4006,0
DA:4007,0
DA:4008,0
DA:4009,0
DA:4010,0
DA:4011,0
DA:4012,0
DA:4013,0
DA:4014,0
DA:4015,0
DA:4016,0
DA:4017,0
DA:4018,0
DA:4019,0
DA:4020,0
DA:4021,0
DA:4022,0
DA:4023,0
DA:4025,0
DA:4027,0
DA:4031,0
DA:4038,0
DA:4039,0
DA:4040,0
DA:4041,0
DA:4046,0
DA:4048,0
DA:4049,0
DA:4051,0
DA:4052,0
DA:4053,0
DA:4054,0
DA:4055,0
DA:4056,0
DA:4059,0
DA:4060,0
DA:4063,0
DA:4071,0
DA:4073,0
DA:4076,0
DA:4078,0
DA:4079,0
DA:4080,0
DA:4081,0
DA:4083,0
DA:4091,0
DA:4093,0
DA:4096,0
DA:4098,0
DA:4099,0
DA:4100,0
DA:4101,0
DA:4104,0
DA:4107,0
DA:4108,0
DA:4109,0
DA:4111,0
DA:4112,0
DA:4114,0
DA:4115,0
DA:4118,0
DA:4119,0
DA:4122,0
DA:4123,0
DA:4124,0
DA:4125,0
DA:4126,0
DA:4129,0
DA:4130,0
DA:4131,0
DA:4132,0
DA:4133,0
DA:4134,0
DA:4135,0
DA:4137,0
DA:4138,0
DA:4139,0
DA:4140,0
DA:4141,0
DA:4142,0
DA:4143,0
DA:4147,0
DA:4148,0
DA:4152,0
DA:4156,0
DA:4157,0
DA:4158,0
DA:4162,0
DA:4164,0
DA:4165,0
DA:4167,0
DA:4168,0
DA:4169,0
DA:4171,0
DA:4172,0
DA:4174,0
DA:4176,0
DA:4177,0
DA:4178,0
DA:4180,0
DA:4181,0
DA:4184,0
DA:4186,0
DA:4187,0
DA:4188,0
DA:4189,0
DA:4190,0
DA:4192,0
DA:4194,0
DA:4197,0
DA:4198,0
DA:4201,0
DA:4203,0
DA:4204,0
DA:4205,0
DA:4207,0
DA:4209,0
DA:4211,0
DA:4213,0
DA:4214,0
DA:4215,0
DA:4218,0
DA:4219,0
DA:4221,0
DA:4222,0
DA:4225,0
DA:4226,0
DA:4228,0
DA:4229,0
DA:4231,0
DA:4232,0
DA:4233,0
DA:4234,0
DA:4235,0
DA:4237,0
DA:4239,0
DA:4243,0
DA:4244,0
DA:4246,0
DA:4248,0
DA:4249,0
DA:4250,0
DA:4251,0
DA:4252,0
DA:4253,0
DA:4255,0
DA:4257,0
DA:4258,0
DA:4260,0
DA:4261,0
DA:4262,0
DA:4264,0
DA:4269,0
DA:4270,0
DA:4273,0
DA:4275,0
DA:4276,0
DA:4277,0
DA:4278,0
DA:4279,0
DA:4281,0
DA:4293,0
DA:4294,0
DA:4295,0
DA:4296,0
DA:4297,0
DA:4298,0
DA:4302,0
DA:4303,0
DA:4304,0
DA:4305,0
DA:4306,0
DA:4309,0
DA:4312,0
DA:4313,0
DA:4314,0
DA:4317,0
DA:4318,0
DA:4319,0
DA:4320,0
DA:4324,0
DA:4326,0
DA:4327,0
DA:4328,0
DA:4332,0
DA:4333,0
DA:4334,0
DA:4336,0
DA:4338,0
DA:4339,0
DA:4340,0
DA:4345,0
DA:4347,0
DA:4348,0
DA:4349,0
DA:4351,0
DA:4361,0
DA:4407,0
DA:4411,56
DA:4421,56
DA:4427,8
DA:4428,8
DA:4429,8
DA:4431,8
DA:4435,0
DA:4436,0
DA:4437,0
DA:4439,8
DA:4441,8
DA:4442,8
DA:4443,0
DA:4444,0
DA:4445,0
DA:4446,0
DA:4447,0
DA:4450,8
DA:4462,8
DA:4463,8
DA:4465,8
DA:4467,8
DA:4473,16
DA:4474,16
DA:4475,16
DA:4480,16
DA:4481,16
DA:4482,8
DA:4483,8
DA:4484,8
DA:4485,16
DA:4490,24
DA:4497,8
DA:4498,8
DA:4501,8
DA:4502,8
DA:4503,8
DA:4505,8
DA:4512,8
DA:4513,8
DA:4516,8
DA:4517,8
DA:4518,8
DA:4520,8
DA:4524,0
DA:4525,0
DA:4528,0
DA:4529,0
DA:4530,0
DA:4541,176
DA:4550,176
DA:4551,176
DA:4556,0
DA:4557,0
DA:4561,0
DA:4562,0
DA:4566,16
DA:4567,16
DA:4572,16
DA:4573,16
DA:4577,8
DA:4578,8
DA:4582,8
DA:4583,8
DA:4587,16
DA:4590,16
DA:4591,16
DA:4595,0
DA:4596,0
DA:4600,8
DA:4601,8
DA:4605,0
DA:4608,16
DA:4612,8
DA:4613,8
DA:4617,16
DA:4618,16
DA:4622,8
DA:4626,0
DA:4630,16
DA:4631,16
DA:4636,8
DA:4637,8
DA:4642,0
DA:4643,0
DA:4648,16
DA:4649,16
DA:4662,0
DA:4663,0
DA:4664,0
DA:4667,0
DA:4668,0
DA:4675,0
DA:4681,0
DA:4682,0
DA:4684,0
DA:4685,0
DA:4686,0
DA:4688,0
DA:4689,0
DA:4690,0
DA:4691,0
DA:4692,0
DA:4696,0
DA:4697,0
DA:4701,0
DA:4702,0
DA:4703,0
DA:4705,0
DA:4712,0
DA:4722,0
DA:4730,0
DA:4732,0
DA:4740,0
DA:4747,0
DA:4749,0
DA:4750,0
DA:4757,8
DA:4759,8
DA:4785,8
DA:4789,8
DA:4824,8
DA:4827,16
DA:4832,0
DA:4833,0
DA:4838,0
DA:4840,0
DA:4841,0
DA:4846,0
DA:4848,0
DA:4849,0
DA:4853,0
DA:4858,0
DA:4860,0
DA:4864,8
DA:4865,8
DA:4866,8
DA:4869,8
DA:4870,8
DA:4871,8
DA:4875,0
DA:4877,0
DA:4878,0
DA:4879,0
DA:4882,0
DA:4884,0
DA:4885,0
DA:4886,0
DA:4890,8
DA:4912,8
DA:4915,16
DA:4916,8
DA:4917,8
DA:4919,16
DA:4921,8
DA:4924,8
DA:4926,8
DA:4927,16
DA:4934,0
DA:4935,0
DA:4938,0
DA:4939,0
DA:4940,0
DA:4941,0
DA:4942,0
DA:4943,0
DA:4945,0
DA:4946,0
DA:4948,0
DA:4949,0
DA:4954,8
DA:4955,8
DA:4956,0
DA:4957,8
DA:4962,8
DA:4963,16
DA:4964,8
DA:4965,16
DA:4966,16
DA:4967,0
DA:4968,0
DA:4969,0
DA:4970,0
DA:4971,0
DA:4972,0
DA:4974,8
DA:4979,8
DA:4980,8
DA:4981,8
DA:4982,0
DA:4983,0
DA:4984,0
DA:4985,0
DA:4987,0
DA:4988,0
DA:4991,8
DA:4999,16
DA:5001,16
DA:5002,8
DA:5010,8
DA:5011,8
DA:5017,8
DA:5021,8
DA:5025,8
DA:5035,16
DA:5048,8
DA:5049,8
DA:5052,0
DA:5053,0
DA:5054,0
DA:5073,8
DA:5079,8
DA:5080,16
DA:5082,8
DA:5083,0
DA:5087,8
DA:5090,8
DA:5096,0
DA:5097,0
DA:5098,0
DA:5101,8
DA:5104,8
DA:5105,8
DA:5110,0
DA:5111,0
DA:5122,8
DA:5124,8
DA:5127,8
DA:5128,0
DA:5132,8
DA:5137,8
DA:5141,8
DA:5144,8
DA:5145,8
DA:5153,8
DA:5158,8
DA:5160,8
DA:5163,8
DA:5165,0
DA:5166,0
DA:5169,8
DA:5170,0
DA:5173,8
DA:5175,8
DA:5177,8
DA:5178,8
DA:5182,8
DA:5184,8
DA:5185,16
DA:5188,8
DA:5190,8
DA:5193,8
DA:5194,0
DA:5198,0
DA:5202,8
DA:5205,8
DA:5207,8
DA:5208,8
DA:5209,8
DA:5213,8
DA:5214,16
DA:5216,8
DA:5221,8
DA:5222,8
DA:5224,8
DA:5227,8
DA:5230,8
DA:5233,8
DA:5234,0
DA:5243,8
DA:5245,8
DA:5247,0
DA:5251,8
DA:5253,8
DA:5254,0
DA:5267,8
DA:5274,8
DA:5275,8
DA:5276,8
DA:5277,0
DA:5278,0
DA:5279,0
DA:5283,0
DA:5284,0
DA:5286,0
DA:5288,8
DA:5296,16
DA:5299,16
DA:5300,0
DA:5303,16
DA:5304,16
DA:5306,16
DA:5307,16
DA:5308,0
DA:5309,0
DA:5310,0
DA:5311,0
DA:5312,0
DA:5313,0
DA:5314,0
DA:5315,0
DA:5316,0
DA:5317,0
DA:5318,0
DA:5319,0
DA:5320,0
DA:5321,0
DA:5322,0
DA:5323,0
DA:5324,0
DA:5325,0
DA:5326,0
DA:5327,0
DA:5328,0
DA:5329,0
DA:5330,0
DA:5331,0
DA:5332,0
DA:5335,0
DA:5341,32
DA:5342,32
DA:5343,32
DA:5344,32
DA:5348,0
DA:5350,0
DA:5352,0
DA:5359,0
DA:5360,0
DA:5370,8
DA:5371,8
DA:5372,0
DA:5373,8
DA:5374,0
DA:5380,8
DA:5381,8
DA:5382,16
DA:5383,8
DA:5384,16
DA:5385,8
DA:5387,16
DA:5388,8
DA:5389,16
DA:5393,8
DA:5394,16
DA:5395,8
DA:5396,8
DA:5397,8
DA:5400,8
DA:5402,8
DA:5404,8
DA:5405,8
DA:5409,8
DA:5410,0
DA:5411,8
DA:5412,8
DA:5414,8
DA:5415,8
DA:5417,8
DA:5418,8
DA:5421,8
DA:5428,0
DA:5429,0
DA:5430,0
DA:5431,0
DA:5432,0
DA:5433,0
DA:5435,0
DA:5436,0
DA:5437,0
DA:5439,0
DA:5440,0
DA:5444,0
DA:5447,0
DA:5449,0
DA:5451,0
DA:5452,0
DA:5453,0
DA:5455,0
DA:5457,0
DA:5458,0
DA:5459,0
DA:5460,0
DA:5461,0
DA:5462,0
DA:5463,0
DA:5466,0
DA:5468,0
DA:5470,0
DA:5471,0
DA:5472,0
DA:5475,0
DA:5477,0
DA:5481,0
DA:5482,0
DA:5483,0
DA:5484,0
DA:5485,0
DA:5486,0
DA:5487,0
DA:5488,0
DA:5489,0
DA:5490,0
DA:5491,0
DA:5492,0
DA:5493,0
DA:5494,0
DA:5496,0
DA:5497,0
DA:5499,0
DA:5506,0
DA:5508,0
DA:5509,0
DA:5510,0
DA:5512,0
DA:5517,56
DA:5518,56
DA:5522,8
DA:5526,56
DA:5530,40
DA:5531,40
DA:5532,32
DA:5534,8
DA:5535,0
DA:5537,8
DA:5542,0
DA:5544,0
DA:5547,0
DA:5548,0
DA:5551,0
DA:5552,0
DA:5554,0
DA:5557,8
DA:5558,16
DA:5560,8
DA:5562,8
DA:5564,8
DA:5576,0
DA:5580,0
DA:5589,144
DA:5591,0
DA:5595,0
DA:5596,0
DA:5598,0
DA:5604,0
DA:5605,0
DA:5606,0
DA:5607,0
DA:5608,0
DA:5610,0
DA:5618,80
DA:5621,80
DA:5624,240
DA:5625,80
DA:5626,80
DA:5629,8
DA:5632,8
DA:5633,0
DA:5639,8
DA:5642,8
DA:5655,40
DA:5657,40
DA:5660,40
DA:5663,0
DA:5664,0
DA:5672,0
DA:5674,0
DA:5677,0
DA:5680,0
DA:5681,0
DA:5690,40
DA:5692,40
DA:5695,40
DA:5698,8
DA:5699,8
DA:5708,0
DA:5709,0
DA:5710,0
DA:5711,0
DA:5712,0
DA:5713,0
DA:5714,0
DA:5728,0
DA:5729,0
DA:5736,0
DA:5737,0
DA:5738,0
DA:5739,0
DA:5742,0
DA:5744,0
DA:5745,0
DA:5746,0
DA:5747,0
DA:5748,0
DA:5749,0
DA:5750,0
DA:5751,0
DA:5752,0
DA:5753,0
DA:5754,0
DA:5755,0
DA:5757,0
DA:5759,0
DA:5827,8
DA:5828,8
DA:5829,8
DA:5830,8
DA:5831,8
DA:5832,8
DA:5833,8
DA:5834,8
DA:5835,8
DA:5836,8
DA:5837,8
DA:5838,8
DA:5839,8
DA:5840,8
DA:5841,8
DA:5842,8
DA:5843,8
DA:5844,0
DA:5845,0
DA:5846,0
DA:5847,0
DA:5848,0
DA:5849,0
DA:5850,0
DA:5851,0
DA:5852,16
DA:5853,0
DA:5854,8
DA:5858,0
DA:5859,0
DA:5860,0
DA:5861,0
DA:5862,0
DA:5864,0
DA:5865,0
DA:5866,0
DA:5867,0
DA:5868,0
DA:5869,0
DA:5870,0
DA:5871,0
DA:5872,0
DA:5874,0
DA:5881,8
DA:5882,16
DA:5883,16
DA:5884,8
DA:5890,8
DA:5891,8
DA:5892,8
DA:5894,0
DA:5895,0
DA:5896,0
DA:5898,0
DA:5899,0
DA:5900,0
DA:5903,0
DA:5906,8
DA:5911,16
DA:5912,8
DA:5916,8
DA:5920,8
DA:5924,8
DA:5928,0
DA:5930,8
DA:5934,8
DA:5935,8
DA:5947,8
DA:5948,0
DA:5949,0
DA:5950,0
DA:5957,8
DA:5959,8
DA:5961,8
DA:5963,8
DA:5964,24
DA:5965,16
DA:5972,8
DA:5973,8
DA:5987,8
DA:5991,8
DA:5993,8
DA:5997,0
DA:6001,0
DA:6003,0
DA:6005,0
DA:6023,0
DA:6031,0
DA:6032,0
DA:6033,0
DA:6034,0
DA:6035,0
DA:6037,0
DA:6038,0
DA:6041,0
DA:6043,0
DA:6044,0
LF:2227
LH:809
end_of_record
TN:
SF:/opt/ros/foxy/src/gtest_vendor/src/gtest_main.cc
FN:33,main
FNDA:8,main
FNF:1
FNH:1
DA:33,8
DA:34,8
DA:35,8
DA:36,8
LF:4
LH:4
end_of_record
